Archive member included to satisfy reference by file (symbol)

i:/mcu/gnu_tools_arm/bin/../lib/gcc/arm-none-eabi/5.4.1/../../../../arm-none-eabi/lib/armv7e-m/fpu/fpv5-d16\libc.a(lib_a-aeabi_atexit.o)
                              build/app.o (__aeabi_atexit)
i:/mcu/gnu_tools_arm/bin/../lib/gcc/arm-none-eabi/5.4.1/../../../../arm-none-eabi/lib/armv7e-m/fpu/fpv5-d16\libc.a(lib_a-cxa_atexit.o)
                              i:/mcu/gnu_tools_arm/bin/../lib/gcc/arm-none-eabi/5.4.1/../../../../arm-none-eabi/lib/armv7e-m/fpu/fpv5-d16\libc.a(lib_a-aeabi_atexit.o) (__cxa_atexit)
i:/mcu/gnu_tools_arm/bin/../lib/gcc/arm-none-eabi/5.4.1/../../../../arm-none-eabi/lib/armv7e-m/fpu/fpv5-d16\libc.a(lib_a-exit.o)
                              i:/mcu/gnu_tools_arm/bin/../lib/gcc/arm-none-eabi/5.4.1/../../../../arm-none-eabi/lib/armv7e-m/fpu/fpv5-d16/crt0.o (exit)
i:/mcu/gnu_tools_arm/bin/../lib/gcc/arm-none-eabi/5.4.1/../../../../arm-none-eabi/lib/armv7e-m/fpu/fpv5-d16\libc.a(lib_a-impure.o)
                              i:/mcu/gnu_tools_arm/bin/../lib/gcc/arm-none-eabi/5.4.1/../../../../arm-none-eabi/lib/armv7e-m/fpu/fpv5-d16\libc.a(lib_a-exit.o) (_global_impure_ptr)
i:/mcu/gnu_tools_arm/bin/../lib/gcc/arm-none-eabi/5.4.1/../../../../arm-none-eabi/lib/armv7e-m/fpu/fpv5-d16\libc.a(lib_a-init.o)
                              i:/mcu/gnu_tools_arm/bin/../lib/gcc/arm-none-eabi/5.4.1/../../../../arm-none-eabi/lib/armv7e-m/fpu/fpv5-d16/crt0.o (__libc_init_array)
i:/mcu/gnu_tools_arm/bin/../lib/gcc/arm-none-eabi/5.4.1/../../../../arm-none-eabi/lib/armv7e-m/fpu/fpv5-d16\libc.a(lib_a-memset.o)
                              i:/mcu/gnu_tools_arm/bin/../lib/gcc/arm-none-eabi/5.4.1/../../../../arm-none-eabi/lib/armv7e-m/fpu/fpv5-d16/crt0.o (memset)
i:/mcu/gnu_tools_arm/bin/../lib/gcc/arm-none-eabi/5.4.1/../../../../arm-none-eabi/lib/armv7e-m/fpu/fpv5-d16\libc.a(lib_a-sprintf.o)
                              build/bsp_uart.o (sprintf)
i:/mcu/gnu_tools_arm/bin/../lib/gcc/arm-none-eabi/5.4.1/../../../../arm-none-eabi/lib/armv7e-m/fpu/fpv5-d16\libc.a(lib_a-svfprintf.o)
                              i:/mcu/gnu_tools_arm/bin/../lib/gcc/arm-none-eabi/5.4.1/../../../../arm-none-eabi/lib/armv7e-m/fpu/fpv5-d16\libc.a(lib_a-sprintf.o) (_svfprintf_r)
i:/mcu/gnu_tools_arm/bin/../lib/gcc/arm-none-eabi/5.4.1/../../../../arm-none-eabi/lib/armv7e-m/fpu/fpv5-d16\libc.a(lib_a-__atexit.o)
                              i:/mcu/gnu_tools_arm/bin/../lib/gcc/arm-none-eabi/5.4.1/../../../../arm-none-eabi/lib/armv7e-m/fpu/fpv5-d16\libc.a(lib_a-cxa_atexit.o) (__register_exitproc)
i:/mcu/gnu_tools_arm/bin/../lib/gcc/arm-none-eabi/5.4.1/../../../../arm-none-eabi/lib/armv7e-m/fpu/fpv5-d16\libc.a(lib_a-__call_atexit.o)
                              i:/mcu/gnu_tools_arm/bin/../lib/gcc/arm-none-eabi/5.4.1/../../../../arm-none-eabi/lib/armv7e-m/fpu/fpv5-d16\libc.a(lib_a-exit.o) (__call_exitprocs)
i:/mcu/gnu_tools_arm/bin/../lib/gcc/arm-none-eabi/5.4.1/../../../../arm-none-eabi/lib/armv7e-m/fpu/fpv5-d16\libc.a(lib_a-atexit.o)
                              i:/mcu/gnu_tools_arm/bin/../lib/gcc/arm-none-eabi/5.4.1/../../../../arm-none-eabi/lib/armv7e-m/fpu/fpv5-d16\libc.a(lib_a-__call_atexit.o) (atexit)
i:/mcu/gnu_tools_arm/bin/../lib/gcc/arm-none-eabi/5.4.1/../../../../arm-none-eabi/lib/armv7e-m/fpu/fpv5-d16\libc.a(lib_a-dtoa.o)
                              i:/mcu/gnu_tools_arm/bin/../lib/gcc/arm-none-eabi/5.4.1/../../../../arm-none-eabi/lib/armv7e-m/fpu/fpv5-d16\libc.a(lib_a-svfprintf.o) (_dtoa_r)
i:/mcu/gnu_tools_arm/bin/../lib/gcc/arm-none-eabi/5.4.1/../../../../arm-none-eabi/lib/armv7e-m/fpu/fpv5-d16\libc.a(lib_a-fini.o)
                              i:/mcu/gnu_tools_arm/bin/../lib/gcc/arm-none-eabi/5.4.1/../../../../arm-none-eabi/lib/armv7e-m/fpu/fpv5-d16\libc.a(lib_a-__call_atexit.o) (__libc_fini_array)
i:/mcu/gnu_tools_arm/bin/../lib/gcc/arm-none-eabi/5.4.1/../../../../arm-none-eabi/lib/armv7e-m/fpu/fpv5-d16\libc.a(lib_a-localeconv.o)
                              i:/mcu/gnu_tools_arm/bin/../lib/gcc/arm-none-eabi/5.4.1/../../../../arm-none-eabi/lib/armv7e-m/fpu/fpv5-d16\libc.a(lib_a-svfprintf.o) (_localeconv_r)
i:/mcu/gnu_tools_arm/bin/../lib/gcc/arm-none-eabi/5.4.1/../../../../arm-none-eabi/lib/armv7e-m/fpu/fpv5-d16\libc.a(lib_a-mallocr.o)
                              i:/mcu/gnu_tools_arm/bin/../lib/gcc/arm-none-eabi/5.4.1/../../../../arm-none-eabi/lib/armv7e-m/fpu/fpv5-d16\libc.a(lib_a-svfprintf.o) (_malloc_r)
i:/mcu/gnu_tools_arm/bin/../lib/gcc/arm-none-eabi/5.4.1/../../../../arm-none-eabi/lib/armv7e-m/fpu/fpv5-d16\libc.a(lib_a-memchr.o)
                              i:/mcu/gnu_tools_arm/bin/../lib/gcc/arm-none-eabi/5.4.1/../../../../arm-none-eabi/lib/armv7e-m/fpu/fpv5-d16\libc.a(lib_a-svfprintf.o) (memchr)
i:/mcu/gnu_tools_arm/bin/../lib/gcc/arm-none-eabi/5.4.1/../../../../arm-none-eabi/lib/armv7e-m/fpu/fpv5-d16\libc.a(lib_a-memcpy.o)
                              i:/mcu/gnu_tools_arm/bin/../lib/gcc/arm-none-eabi/5.4.1/../../../../arm-none-eabi/lib/armv7e-m/fpu/fpv5-d16\libc.a(lib_a-dtoa.o) (memcpy)
i:/mcu/gnu_tools_arm/bin/../lib/gcc/arm-none-eabi/5.4.1/../../../../arm-none-eabi/lib/armv7e-m/fpu/fpv5-d16\libc.a(lib_a-mlock.o)
                              i:/mcu/gnu_tools_arm/bin/../lib/gcc/arm-none-eabi/5.4.1/../../../../arm-none-eabi/lib/armv7e-m/fpu/fpv5-d16\libc.a(lib_a-mallocr.o) (__malloc_lock)
i:/mcu/gnu_tools_arm/bin/../lib/gcc/arm-none-eabi/5.4.1/../../../../arm-none-eabi/lib/armv7e-m/fpu/fpv5-d16\libc.a(lib_a-mprec.o)
                              i:/mcu/gnu_tools_arm/bin/../lib/gcc/arm-none-eabi/5.4.1/../../../../arm-none-eabi/lib/armv7e-m/fpu/fpv5-d16\libc.a(lib_a-dtoa.o) (_Balloc)
i:/mcu/gnu_tools_arm/bin/../lib/gcc/arm-none-eabi/5.4.1/../../../../arm-none-eabi/lib/armv7e-m/fpu/fpv5-d16\libc.a(lib_a-sbrkr.o)
                              i:/mcu/gnu_tools_arm/bin/../lib/gcc/arm-none-eabi/5.4.1/../../../../arm-none-eabi/lib/armv7e-m/fpu/fpv5-d16\libc.a(lib_a-mallocr.o) (_sbrk_r)
i:/mcu/gnu_tools_arm/bin/../lib/gcc/arm-none-eabi/5.4.1/../../../../arm-none-eabi/lib/armv7e-m/fpu/fpv5-d16\libc.a(lib_a-strlen.o)
                              i:/mcu/gnu_tools_arm/bin/../lib/gcc/arm-none-eabi/5.4.1/../../../../arm-none-eabi/lib/armv7e-m/fpu/fpv5-d16\libc.a(lib_a-svfprintf.o) (strlen)
i:/mcu/gnu_tools_arm/bin/../lib/gcc/arm-none-eabi/5.4.1/../../../../arm-none-eabi/lib/armv7e-m/fpu/fpv5-d16\libc.a(lib_a-svfiprintf.o)
                              i:/mcu/gnu_tools_arm/bin/../lib/gcc/arm-none-eabi/5.4.1/../../../../arm-none-eabi/lib/armv7e-m/fpu/fpv5-d16\libc.a(lib_a-svfprintf.o) (__ssprint_r)
i:/mcu/gnu_tools_arm/bin/../lib/gcc/arm-none-eabi/5.4.1/../../../../arm-none-eabi/lib/armv7e-m/fpu/fpv5-d16\libc.a(lib_a-callocr.o)
                              i:/mcu/gnu_tools_arm/bin/../lib/gcc/arm-none-eabi/5.4.1/../../../../arm-none-eabi/lib/armv7e-m/fpu/fpv5-d16\libc.a(lib_a-mprec.o) (_calloc_r)
i:/mcu/gnu_tools_arm/bin/../lib/gcc/arm-none-eabi/5.4.1/../../../../arm-none-eabi/lib/armv7e-m/fpu/fpv5-d16\libc.a(lib_a-freer.o)
                              i:/mcu/gnu_tools_arm/bin/../lib/gcc/arm-none-eabi/5.4.1/../../../../arm-none-eabi/lib/armv7e-m/fpu/fpv5-d16\libc.a(lib_a-mallocr.o) (_free_r)
i:/mcu/gnu_tools_arm/bin/../lib/gcc/arm-none-eabi/5.4.1/../../../../arm-none-eabi/lib/armv7e-m/fpu/fpv5-d16\libc.a(lib_a-locale.o)
                              i:/mcu/gnu_tools_arm/bin/../lib/gcc/arm-none-eabi/5.4.1/../../../../arm-none-eabi/lib/armv7e-m/fpu/fpv5-d16\libc.a(lib_a-localeconv.o) (__global_locale)
i:/mcu/gnu_tools_arm/bin/../lib/gcc/arm-none-eabi/5.4.1/../../../../arm-none-eabi/lib/armv7e-m/fpu/fpv5-d16\libc.a(lib_a-mbtowc_r.o)
                              i:/mcu/gnu_tools_arm/bin/../lib/gcc/arm-none-eabi/5.4.1/../../../../arm-none-eabi/lib/armv7e-m/fpu/fpv5-d16\libc.a(lib_a-locale.o) (__ascii_mbtowc)
i:/mcu/gnu_tools_arm/bin/../lib/gcc/arm-none-eabi/5.4.1/../../../../arm-none-eabi/lib/armv7e-m/fpu/fpv5-d16\libc.a(lib_a-memmove.o)
                              i:/mcu/gnu_tools_arm/bin/../lib/gcc/arm-none-eabi/5.4.1/../../../../arm-none-eabi/lib/armv7e-m/fpu/fpv5-d16\libc.a(lib_a-svfiprintf.o) (memmove)
i:/mcu/gnu_tools_arm/bin/../lib/gcc/arm-none-eabi/5.4.1/../../../../arm-none-eabi/lib/armv7e-m/fpu/fpv5-d16\libc.a(lib_a-reallocr.o)
                              i:/mcu/gnu_tools_arm/bin/../lib/gcc/arm-none-eabi/5.4.1/../../../../arm-none-eabi/lib/armv7e-m/fpu/fpv5-d16\libc.a(lib_a-svfiprintf.o) (_realloc_r)
i:/mcu/gnu_tools_arm/bin/../lib/gcc/arm-none-eabi/5.4.1/../../../../arm-none-eabi/lib/armv7e-m/fpu/fpv5-d16\libc.a(lib_a-reent.o)
                              i:/mcu/gnu_tools_arm/bin/../lib/gcc/arm-none-eabi/5.4.1/../../../../arm-none-eabi/lib/armv7e-m/fpu/fpv5-d16\libc.a(lib_a-sbrkr.o) (errno)
i:/mcu/gnu_tools_arm/bin/../lib/gcc/arm-none-eabi/5.4.1/../../../../arm-none-eabi/lib/armv7e-m/fpu/fpv5-d16\libc.a(lib_a-strcmp.o)
                              i:/mcu/gnu_tools_arm/bin/../lib/gcc/arm-none-eabi/5.4.1/../../../../arm-none-eabi/lib/armv7e-m/fpu/fpv5-d16\libc.a(lib_a-locale.o) (strcmp)
i:/mcu/gnu_tools_arm/bin/../lib/gcc/arm-none-eabi/5.4.1/../../../../arm-none-eabi/lib/armv7e-m/fpu/fpv5-d16\libc.a(lib_a-wctomb_r.o)
                              i:/mcu/gnu_tools_arm/bin/../lib/gcc/arm-none-eabi/5.4.1/../../../../arm-none-eabi/lib/armv7e-m/fpu/fpv5-d16\libc.a(lib_a-locale.o) (__ascii_wctomb)
i:/mcu/gnu_tools_arm/bin/../lib/gcc/arm-none-eabi/5.4.1/../../../../arm-none-eabi/lib/armv7e-m/fpu/fpv5-d16\libc.a(lib_a-ctype_.o)
                              i:/mcu/gnu_tools_arm/bin/../lib/gcc/arm-none-eabi/5.4.1/../../../../arm-none-eabi/lib/armv7e-m/fpu/fpv5-d16\libc.a(lib_a-locale.o) (_ctype_)
i:/mcu/gnu_tools_arm/bin/../lib/gcc/arm-none-eabi/5.4.1/../../../../arm-none-eabi/lib/armv7e-m/fpu/fpv5-d16\libnosys.a(sbrk.o)
                              i:/mcu/gnu_tools_arm/bin/../lib/gcc/arm-none-eabi/5.4.1/../../../../arm-none-eabi/lib/armv7e-m/fpu/fpv5-d16\libc.a(lib_a-sbrkr.o) (_sbrk)
i:/mcu/gnu_tools_arm/bin/../lib/gcc/arm-none-eabi/5.4.1/../../../../arm-none-eabi/lib/armv7e-m/fpu/fpv5-d16\libnosys.a(_exit.o)
                              i:/mcu/gnu_tools_arm/bin/../lib/gcc/arm-none-eabi/5.4.1/../../../../arm-none-eabi/lib/armv7e-m/fpu/fpv5-d16\libc.a(lib_a-exit.o) (_exit)
i:/mcu/gnu_tools_arm/bin/../lib/gcc/arm-none-eabi/5.4.1/armv7e-m/fpu/fpv5-d16\libgcc.a(_aeabi_uldivmod.o)
                              build/stm32h7xx_hal_uart.o (__aeabi_uldivmod)
i:/mcu/gnu_tools_arm/bin/../lib/gcc/arm-none-eabi/5.4.1/armv7e-m/fpu/fpv5-d16\libgcc.a(_udivmoddi4.o)
                              i:/mcu/gnu_tools_arm/bin/../lib/gcc/arm-none-eabi/5.4.1/armv7e-m/fpu/fpv5-d16\libgcc.a(_aeabi_uldivmod.o) (__udivmoddi4)
i:/mcu/gnu_tools_arm/bin/../lib/gcc/arm-none-eabi/5.4.1/armv7e-m/fpu/fpv5-d16\libgcc.a(unwind-arm.o)
                              build/app.o (__aeabi_unwind_cpp_pr0)
i:/mcu/gnu_tools_arm/bin/../lib/gcc/arm-none-eabi/5.4.1/armv7e-m/fpu/fpv5-d16\libgcc.a(libunwind.o)
                              i:/mcu/gnu_tools_arm/bin/../lib/gcc/arm-none-eabi/5.4.1/armv7e-m/fpu/fpv5-d16\libgcc.a(unwind-arm.o) (restore_core_regs)
i:/mcu/gnu_tools_arm/bin/../lib/gcc/arm-none-eabi/5.4.1/armv7e-m/fpu/fpv5-d16\libgcc.a(pr-support.o)
                              i:/mcu/gnu_tools_arm/bin/../lib/gcc/arm-none-eabi/5.4.1/armv7e-m/fpu/fpv5-d16\libgcc.a(unwind-arm.o) (__gnu_unwind_execute)
i:/mcu/gnu_tools_arm/bin/../lib/gcc/arm-none-eabi/5.4.1/armv7e-m/fpu/fpv5-d16\libgcc.a(_dvmd_tls.o)
                              i:/mcu/gnu_tools_arm/bin/../lib/gcc/arm-none-eabi/5.4.1/armv7e-m/fpu/fpv5-d16\libgcc.a(_aeabi_uldivmod.o) (__aeabi_ldiv0)
i:/mcu/gnu_tools_arm/bin/../lib/gcc/arm-none-eabi/5.4.1/../../../../arm-none-eabi/lib/armv7e-m/fpu/fpv5-d16\libc.a(lib_a-abort.o)
                              i:/mcu/gnu_tools_arm/bin/../lib/gcc/arm-none-eabi/5.4.1/armv7e-m/fpu/fpv5-d16\libgcc.a(unwind-arm.o) (abort)
i:/mcu/gnu_tools_arm/bin/../lib/gcc/arm-none-eabi/5.4.1/../../../../arm-none-eabi/lib/armv7e-m/fpu/fpv5-d16\libc.a(lib_a-signal.o)
                              i:/mcu/gnu_tools_arm/bin/../lib/gcc/arm-none-eabi/5.4.1/../../../../arm-none-eabi/lib/armv7e-m/fpu/fpv5-d16\libc.a(lib_a-abort.o) (raise)
i:/mcu/gnu_tools_arm/bin/../lib/gcc/arm-none-eabi/5.4.1/../../../../arm-none-eabi/lib/armv7e-m/fpu/fpv5-d16\libc.a(lib_a-signalr.o)
                              i:/mcu/gnu_tools_arm/bin/../lib/gcc/arm-none-eabi/5.4.1/../../../../arm-none-eabi/lib/armv7e-m/fpu/fpv5-d16\libc.a(lib_a-signal.o) (_kill_r)
i:/mcu/gnu_tools_arm/bin/../lib/gcc/arm-none-eabi/5.4.1/../../../../arm-none-eabi/lib/armv7e-m/fpu/fpv5-d16\libnosys.a(getpid.o)
                              i:/mcu/gnu_tools_arm/bin/../lib/gcc/arm-none-eabi/5.4.1/../../../../arm-none-eabi/lib/armv7e-m/fpu/fpv5-d16\libc.a(lib_a-signalr.o) (_getpid)
i:/mcu/gnu_tools_arm/bin/../lib/gcc/arm-none-eabi/5.4.1/../../../../arm-none-eabi/lib/armv7e-m/fpu/fpv5-d16\libnosys.a(kill.o)
                              i:/mcu/gnu_tools_arm/bin/../lib/gcc/arm-none-eabi/5.4.1/../../../../arm-none-eabi/lib/armv7e-m/fpu/fpv5-d16\libc.a(lib_a-signalr.o) (_kill)

Allocating common symbols
Common symbol       size              file

OSSchedLockNestingCtr
                    0x1               build/os_var.o
OS_AppTaskReturnHookPtr
                    0x4               build/os_var.o
hdma_uart4_rx       0x78              build/usart.o
OSStatTaskCtr       0x4               build/os_var.o
OSTaskRegNextAvailID
                    0x1               build/os_var.o
OSRunning           0x1               build/os_var.o
OSRdyList           0x200             build/os_var.o
OSInitialized       0x1               build/os_var.o
OSPrioHighRdy       0x1               build/os_var.o
errno               0x4               i:/mcu/gnu_tools_arm/bin/../lib/gcc/arm-none-eabi/5.4.1/../../../../arm-none-eabi/lib/armv7e-m/fpu/fpv5-d16\libc.a(lib_a-reent.o)
OSStatTaskRdy       0x1               build/os_var.o
OS_AppTaskCreateHookPtr
                    0x4               build/os_var.o
OSCfg_StatTaskStk   0x200             build/os_cfg_app.o
Mem_SegHeadPtr      0x4               build/lib_mem.o
OSPrioCur           0x1               build/os_var.o
OSTickTaskTCB       0xac              build/os_var.o
Math_RandSeedCur    0x4               build/lib_math.o
OSTmrTickCtr        0x4               build/os_var.o
OSTCBCurPtr         0x4               build/os_var.o
OSCfg_MsgPool       0x180             build/os_cfg_app.o
uwTick              0x4               build/stm32h7xx_hal.o
OSStatTaskCPUUsageMax
                    0x2               build/os_var.o
pFlash              0x1c              build/stm32h7xx_hal_flash.o
OSTCBHighRdyPtr     0x4               build/os_var.o
CPU_TS_TmrFreq_Hz   0x4               build/cpu_core.o
OS_AppTaskDelHookPtr
                    0x4               build/os_var.o
OS_AppTimeTickHookPtr
                    0x4               build/os_var.o
OSStatTaskCPUUsage  0x2               build/os_var.o
OSTaskCtxSwCtr      0x4               build/os_var.o
OSIntNestingCtr     0x1               build/os_var.o
OSTaskQty           0x2               build/os_var.o
OS_CPU_ExceptStkBase
                    0x4               build/os_cpu_c.o
OSTmrTaskTCB        0xac              build/os_var.o
OSMsgPool           0x8               build/os_var.o
OSIdleTaskTCB       0xac              build/os_var.o
OSSchedRoundRobinDfltTimeQuanta
                    0x4               build/os_var.o
OSCfg_TmrTaskStk    0x200             build/os_cfg_app.o
OSTmrMutex          0x18              build/os_var.o
OS_AppIdleTaskHookPtr
                    0x4               build/os_var.o
OSStatTaskCtrMax    0x4               build/os_var.o
OSTickCtr           0x4               build/os_var.o
OS_AppTaskSwHookPtr
                    0x4               build/os_var.o
OSCfg_ISRStk        0x400             build/os_cfg_app.o
OSStatTaskCtrRun    0x4               build/os_var.o
OS_AppStatTaskHookPtr
                    0x4               build/os_var.o
OSCfg_TickTaskStk   0x200             build/os_cfg_app.o
OSStatResetFlag     0x1               build/os_var.o
huart4              0x8c              build/usart.o
OSStatTaskTCB       0xac              build/os_var.o
OSTmrListPtr        0x4               build/os_var.o
OSPrioTbl           0x8               build/os_prio.o
OSTmrUpdateCnt      0x4               build/os_var.o
OSSchedRoundRobinEn
                    0x1               build/os_var.o
OSTickListDly       0x4               build/os_var.o
OSTmrUpdateCtr      0x4               build/os_var.o
OSTickListTimeout   0x4               build/os_var.o
OSCfg_IdleTaskStk   0x100             build/os_cfg_app.o
hdma_uart4_tx       0x78              build/usart.o

Discarded input sections

 .text          0x00000000        0x0 i:/mcu/gnu_tools_arm/bin/../lib/gcc/arm-none-eabi/5.4.1/armv7e-m/fpu/fpv5-d16/crti.o
 .data          0x00000000        0x0 i:/mcu/gnu_tools_arm/bin/../lib/gcc/arm-none-eabi/5.4.1/armv7e-m/fpu/fpv5-d16/crti.o
 .bss           0x00000000        0x0 i:/mcu/gnu_tools_arm/bin/../lib/gcc/arm-none-eabi/5.4.1/armv7e-m/fpu/fpv5-d16/crti.o
 .text          0x00000000       0x74 i:/mcu/gnu_tools_arm/bin/../lib/gcc/arm-none-eabi/5.4.1/../../../../arm-none-eabi/lib/armv7e-m/fpu/fpv5-d16/crt0.o
 .data          0x00000000        0x0 i:/mcu/gnu_tools_arm/bin/../lib/gcc/arm-none-eabi/5.4.1/../../../../arm-none-eabi/lib/armv7e-m/fpu/fpv5-d16/crt0.o
 .bss           0x00000000        0x0 i:/mcu/gnu_tools_arm/bin/../lib/gcc/arm-none-eabi/5.4.1/../../../../arm-none-eabi/lib/armv7e-m/fpu/fpv5-d16/crt0.o
 .ARM.extab     0x00000000        0x0 i:/mcu/gnu_tools_arm/bin/../lib/gcc/arm-none-eabi/5.4.1/../../../../arm-none-eabi/lib/armv7e-m/fpu/fpv5-d16/crt0.o
 .ARM.exidx     0x00000000        0x8 i:/mcu/gnu_tools_arm/bin/../lib/gcc/arm-none-eabi/5.4.1/../../../../arm-none-eabi/lib/armv7e-m/fpu/fpv5-d16/crt0.o
 .ARM.attributes
                0x00000000       0x1e i:/mcu/gnu_tools_arm/bin/../lib/gcc/arm-none-eabi/5.4.1/../../../../arm-none-eabi/lib/armv7e-m/fpu/fpv5-d16/crt0.o
 .text          0x00000000        0x0 build/stm32h7xx_it.o
 .data          0x00000000        0x0 build/stm32h7xx_it.o
 .bss           0x00000000        0x0 build/stm32h7xx_it.o
 .text.PendSV_Handler
                0x00000000        0x4 build/stm32h7xx_it.o
 .text.SysTick_Handler
                0x00000000        0x8 build/stm32h7xx_it.o
 .text          0x00000000        0x0 build/stm32h7xx_hal_msp.o
 .data          0x00000000        0x0 build/stm32h7xx_hal_msp.o
 .bss           0x00000000        0x0 build/stm32h7xx_hal_msp.o
 .text          0x00000000        0x0 build/stm32h7xx_hal_cortex.o
 .data          0x00000000        0x0 build/stm32h7xx_hal_cortex.o
 .bss           0x00000000        0x0 build/stm32h7xx_hal_cortex.o
 .text.HAL_NVIC_DisableIRQ
                0x00000000       0x28 build/stm32h7xx_hal_cortex.o
 .text.HAL_NVIC_SystemReset
                0x00000000       0x24 build/stm32h7xx_hal_cortex.o
 .text.HAL_MPU_Disable
                0x00000000       0x20 build/stm32h7xx_hal_cortex.o
 .text.HAL_MPU_Enable
                0x00000000       0x24 build/stm32h7xx_hal_cortex.o
 .text.HAL_MPU_ConfigRegion
                0x00000000       0x54 build/stm32h7xx_hal_cortex.o
 .text.HAL_NVIC_GetPriorityGrouping
                0x00000000       0x10 build/stm32h7xx_hal_cortex.o
 .text.HAL_NVIC_GetPriority
                0x00000000       0x58 build/stm32h7xx_hal_cortex.o
 .text.HAL_NVIC_SetPendingIRQ
                0x00000000       0x20 build/stm32h7xx_hal_cortex.o
 .text.HAL_NVIC_GetPendingIRQ
                0x00000000       0x24 build/stm32h7xx_hal_cortex.o
 .text.HAL_NVIC_ClearPendingIRQ
                0x00000000       0x20 build/stm32h7xx_hal_cortex.o
 .text.HAL_NVIC_GetActive
                0x00000000       0x24 build/stm32h7xx_hal_cortex.o
 .text.HAL_SYSTICK_CLKSourceConfig
                0x00000000       0x20 build/stm32h7xx_hal_cortex.o
 .text.HAL_SYSTICK_Callback
                0x00000000        0x4 build/stm32h7xx_hal_cortex.o
 .text.HAL_SYSTICK_IRQHandler
                0x00000000        0x8 build/stm32h7xx_hal_cortex.o
 .text.HAL_GetCurrentCPUID
                0x00000000        0x4 build/stm32h7xx_hal_cortex.o
 .text          0x00000000        0x0 build/stm32h7xx_hal_tim.o
 .data          0x00000000        0x0 build/stm32h7xx_hal_tim.o
 .bss           0x00000000        0x0 build/stm32h7xx_hal_tim.o
 .debug_info    0x00000000       0xb0 build/stm32h7xx_hal_tim.o
 .debug_abbrev  0x00000000       0x4b build/stm32h7xx_hal_tim.o
 .debug_aranges
                0x00000000       0x18 build/stm32h7xx_hal_tim.o
 .debug_line    0x00000000       0xc4 build/stm32h7xx_hal_tim.o
 .debug_str     0x00000000      0x1cd build/stm32h7xx_hal_tim.o
 .comment       0x00000000       0x6f build/stm32h7xx_hal_tim.o
 .ARM.attributes
                0x00000000       0x37 build/stm32h7xx_hal_tim.o
 .text          0x00000000        0x0 build/stm32h7xx_hal_tim_ex.o
 .data          0x00000000        0x0 build/stm32h7xx_hal_tim_ex.o
 .bss           0x00000000        0x0 build/stm32h7xx_hal_tim_ex.o
 .debug_info    0x00000000       0xb0 build/stm32h7xx_hal_tim_ex.o
 .debug_abbrev  0x00000000       0x4b build/stm32h7xx_hal_tim_ex.o
 .debug_aranges
                0x00000000       0x18 build/stm32h7xx_hal_tim_ex.o
 .debug_line    0x00000000       0xc4 build/stm32h7xx_hal_tim_ex.o
 .debug_str     0x00000000      0x1d0 build/stm32h7xx_hal_tim_ex.o
 .comment       0x00000000       0x6f build/stm32h7xx_hal_tim_ex.o
 .ARM.attributes
                0x00000000       0x37 build/stm32h7xx_hal_tim_ex.o
 .text          0x00000000        0x0 build/stm32h7xx_hal_rcc.o
 .data          0x00000000        0x0 build/stm32h7xx_hal_rcc.o
 .bss           0x00000000        0x0 build/stm32h7xx_hal_rcc.o
 .text.HAL_RCC_DeInit
                0x00000000      0x1e0 build/stm32h7xx_hal_rcc.o
 .text.HAL_RCC_MCOConfig
                0x00000000       0xa4 build/stm32h7xx_hal_rcc.o
 .text.HAL_RCC_EnableCSS
                0x00000000       0x10 build/stm32h7xx_hal_rcc.o
 .text.HAL_RCC_DisableCSS
                0x00000000       0x10 build/stm32h7xx_hal_rcc.o
 .text.HAL_RCC_GetOscConfig
                0x00000000      0x154 build/stm32h7xx_hal_rcc.o
 .text.HAL_RCC_GetClockConfig
                0x00000000       0x54 build/stm32h7xx_hal_rcc.o
 .text.HAL_RCC_CSSCallback
                0x00000000        0x4 build/stm32h7xx_hal_rcc.o
 .text.HAL_RCC_NMI_IRQHandler
                0x00000000       0x20 build/stm32h7xx_hal_rcc.o
 .text          0x00000000        0x0 build/stm32h7xx_hal_rcc_ex.o
 .data          0x00000000        0x0 build/stm32h7xx_hal_rcc_ex.o
 .bss           0x00000000        0x0 build/stm32h7xx_hal_rcc_ex.o
 .text.HAL_RCCEx_GetPeriphCLKConfig
                0x00000000      0x1a0 build/stm32h7xx_hal_rcc_ex.o
 .text.HAL_RCCEx_GetD1PCLK1Freq
                0x00000000       0x24 build/stm32h7xx_hal_rcc_ex.o
 .text.HAL_RCCEx_GetPLL1ClockFreq
                0x00000000      0x1f8 build/stm32h7xx_hal_rcc_ex.o
 .text.HAL_RCCEx_GetPeriphCLKFreq
                0x00000000      0x378 build/stm32h7xx_hal_rcc_ex.o
 .text.HAL_RCCEx_GetD1SysClockFreq
                0x00000000       0x44 build/stm32h7xx_hal_rcc_ex.o
 .text.HAL_RCCEx_EnableLSECSS
                0x00000000       0x10 build/stm32h7xx_hal_rcc_ex.o
 .text.HAL_RCCEx_DisableLSECSS
                0x00000000       0x18 build/stm32h7xx_hal_rcc_ex.o
 .text.HAL_RCCEx_EnableLSECSS_IT
                0x00000000       0x30 build/stm32h7xx_hal_rcc_ex.o
 .text.HAL_RCCEx_WakeUpStopCLKConfig
                0x00000000       0x14 build/stm32h7xx_hal_rcc_ex.o
 .text.HAL_RCCEx_KerWakeUpStopCLKConfig
                0x00000000       0x14 build/stm32h7xx_hal_rcc_ex.o
 .text.HAL_RCCEx_WWDGxSysResetConfig
                0x00000000       0x14 build/stm32h7xx_hal_rcc_ex.o
 .text.HAL_RCCEx_CRSConfig
                0x00000000       0x74 build/stm32h7xx_hal_rcc_ex.o
 .text.HAL_RCCEx_CRSSoftwareSynchronizationGenerate
                0x00000000       0x10 build/stm32h7xx_hal_rcc_ex.o
 .text.HAL_RCCEx_CRSGetSynchronizationInfo
                0x00000000       0x24 build/stm32h7xx_hal_rcc_ex.o
 .text.HAL_RCCEx_CRSWaitSynchronization
                0x00000000       0xa8 build/stm32h7xx_hal_rcc_ex.o
 .text.HAL_RCCEx_CRS_SyncOkCallback
                0x00000000        0x4 build/stm32h7xx_hal_rcc_ex.o
 .text.HAL_RCCEx_CRS_SyncWarnCallback
                0x00000000        0x4 build/stm32h7xx_hal_rcc_ex.o
 .text.HAL_RCCEx_CRS_ExpectedSyncCallback
                0x00000000        0x4 build/stm32h7xx_hal_rcc_ex.o
 .text.HAL_RCCEx_CRS_ErrorCallback
                0x00000000        0x4 build/stm32h7xx_hal_rcc_ex.o
 .text.HAL_RCCEx_CRS_IRQHandler
                0x00000000       0x8c build/stm32h7xx_hal_rcc_ex.o
 .text.HAL_RCCEx_LSECSS_Callback
                0x00000000        0x4 build/stm32h7xx_hal_rcc_ex.o
 .text.HAL_RCCEx_LSECSS_IRQHandler
                0x00000000       0x20 build/stm32h7xx_hal_rcc_ex.o
 .text          0x00000000        0x0 build/stm32h7xx_hal_flash.o
 .data          0x00000000        0x0 build/stm32h7xx_hal_flash.o
 .bss           0x00000000        0x0 build/stm32h7xx_hal_flash.o
 .text.HAL_FLASH_EndOfOperationCallback
                0x00000000        0x4 build/stm32h7xx_hal_flash.o
 .text.HAL_FLASH_OperationErrorCallback
                0x00000000        0x4 build/stm32h7xx_hal_flash.o
 .text.HAL_FLASH_IRQHandler
                0x00000000      0x100 build/stm32h7xx_hal_flash.o
 .text.HAL_FLASH_Unlock
                0x00000000       0x34 build/stm32h7xx_hal_flash.o
 .text.HAL_FLASH_Lock
                0x00000000       0x20 build/stm32h7xx_hal_flash.o
 .text.HAL_FLASH_OB_Unlock
                0x00000000       0x34 build/stm32h7xx_hal_flash.o
 .text.HAL_FLASH_OB_Lock
                0x00000000       0x20 build/stm32h7xx_hal_flash.o
 .text.HAL_FLASH_GetError
                0x00000000        0xc build/stm32h7xx_hal_flash.o
 .text.FLASH_WaitForLastOperation
                0x00000000       0x80 build/stm32h7xx_hal_flash.o
 .text.HAL_FLASH_Program
                0x00000000       0x8c build/stm32h7xx_hal_flash.o
 .text.HAL_FLASH_Program_IT
                0x00000000       0x8c build/stm32h7xx_hal_flash.o
 .text.FLASH_OB_WaitForLastOperation
                0x00000000       0x60 build/stm32h7xx_hal_flash.o
 .text.FLASH_CRC_WaitForLastOperation
                0x00000000       0x74 build/stm32h7xx_hal_flash.o
 .text.HAL_FLASH_OB_Launch
                0x00000000       0x30 build/stm32h7xx_hal_flash.o
 .debug_info    0x00000000      0xa44 build/stm32h7xx_hal_flash.o
 .debug_abbrev  0x00000000      0x240 build/stm32h7xx_hal_flash.o
 .debug_loc     0x00000000      0x710 build/stm32h7xx_hal_flash.o
 .debug_aranges
                0x00000000       0x88 build/stm32h7xx_hal_flash.o
 .debug_ranges  0x00000000       0x78 build/stm32h7xx_hal_flash.o
 .debug_line    0x00000000      0x426 build/stm32h7xx_hal_flash.o
 .debug_str     0x00000000      0x705 build/stm32h7xx_hal_flash.o
 .comment       0x00000000       0x6f build/stm32h7xx_hal_flash.o
 .debug_frame   0x00000000      0x158 build/stm32h7xx_hal_flash.o
 .ARM.attributes
                0x00000000       0x37 build/stm32h7xx_hal_flash.o
 COMMON         0x00000000       0x1c build/stm32h7xx_hal_flash.o
 .text          0x00000000        0x0 build/stm32h7xx_hal_flash_ex.o
 .data          0x00000000        0x0 build/stm32h7xx_hal_flash_ex.o
 .bss           0x00000000        0x0 build/stm32h7xx_hal_flash_ex.o
 .text.FLASH_MassErase
                0x00000000       0x24 build/stm32h7xx_hal_flash_ex.o
 .text.FLASH_OB_EnableWRP
                0x00000000       0x18 build/stm32h7xx_hal_flash_ex.o
 .text.FLASH_OB_DisableWRP
                0x00000000       0x18 build/stm32h7xx_hal_flash_ex.o
 .text.FLASH_OB_GetWRP
                0x00000000       0x24 build/stm32h7xx_hal_flash_ex.o
 .text.FLASH_OB_RDPConfig
                0x00000000       0x14 build/stm32h7xx_hal_flash_ex.o
 .text.FLASH_OB_GetRDP
                0x00000000       0x20 build/stm32h7xx_hal_flash_ex.o
 .text.FLASH_OB_UserConfig
                0x00000000       0x9c build/stm32h7xx_hal_flash_ex.o
 .text.FLASH_OB_GetUser
                0x00000000       0x14 build/stm32h7xx_hal_flash_ex.o
 .text.FLASH_OB_PCROPConfig
                0x00000000       0x24 build/stm32h7xx_hal_flash_ex.o
 .text.FLASH_OB_GetPCROP
                0x00000000       0x3c build/stm32h7xx_hal_flash_ex.o
 .text.FLASH_OB_BOR_LevelConfig
                0x00000000       0x14 build/stm32h7xx_hal_flash_ex.o
 .text.FLASH_OB_GetBOR
                0x00000000       0x10 build/stm32h7xx_hal_flash_ex.o
 .text.FLASH_OB_BootAddConfig
                0x00000000       0x34 build/stm32h7xx_hal_flash_ex.o
 .text.FLASH_OB_GetBootAdd
                0x00000000       0x18 build/stm32h7xx_hal_flash_ex.o
 .text.FLASH_OB_SecureAreaConfig
                0x00000000       0x28 build/stm32h7xx_hal_flash_ex.o
 .text.FLASH_OB_GetSecureArea
                0x00000000       0x3c build/stm32h7xx_hal_flash_ex.o
 .text.FLASH_CRC_AddSector
                0x00000000       0x20 build/stm32h7xx_hal_flash_ex.o
 .text.FLASH_CRC_SelectAddress
                0x00000000       0x10 build/stm32h7xx_hal_flash_ex.o
 .text.HAL_FLASHEx_OBProgram
                0x00000000       0xc4 build/stm32h7xx_hal_flash_ex.o
 .text.HAL_FLASHEx_OBGetConfig
                0x00000000       0x6c build/stm32h7xx_hal_flash_ex.o
 .text.HAL_FLASHEx_Unlock_Bank1
                0x00000000       0x34 build/stm32h7xx_hal_flash_ex.o
 .text.HAL_FLASHEx_Lock_Bank1
                0x00000000       0x14 build/stm32h7xx_hal_flash_ex.o
 .text.HAL_FLASHEx_ComputeCRC
                0x00000000       0xb8 build/stm32h7xx_hal_flash_ex.o
 .text.FLASH_Erase_Sector
                0x00000000       0x24 build/stm32h7xx_hal_flash_ex.o
 .text.HAL_FLASHEx_Erase
                0x00000000       0xc8 build/stm32h7xx_hal_flash_ex.o
 .text.HAL_FLASHEx_Erase_IT
                0x00000000       0xa0 build/stm32h7xx_hal_flash_ex.o
 .debug_info    0x00000000      0xf6f build/stm32h7xx_hal_flash_ex.o
 .debug_abbrev  0x00000000      0x25b build/stm32h7xx_hal_flash_ex.o
 .debug_loc     0x00000000      0x875 build/stm32h7xx_hal_flash_ex.o
 .debug_aranges
                0x00000000       0xe8 build/stm32h7xx_hal_flash_ex.o
 .debug_ranges  0x00000000       0xd8 build/stm32h7xx_hal_flash_ex.o
 .debug_line    0x00000000      0x4c7 build/stm32h7xx_hal_flash_ex.o
 .debug_str     0x00000000      0x985 build/stm32h7xx_hal_flash_ex.o
 .comment       0x00000000       0x6f build/stm32h7xx_hal_flash_ex.o
 .debug_frame   0x00000000      0x21c build/stm32h7xx_hal_flash_ex.o
 .ARM.attributes
                0x00000000       0x37 build/stm32h7xx_hal_flash_ex.o
 .text          0x00000000        0x0 build/stm32h7xx_hal_gpio.o
 .data          0x00000000        0x0 build/stm32h7xx_hal_gpio.o
 .bss           0x00000000        0x0 build/stm32h7xx_hal_gpio.o
 .text.HAL_GPIO_DeInit
                0x00000000      0x140 build/stm32h7xx_hal_gpio.o
 .text.HAL_GPIO_ReadPin
                0x00000000       0x10 build/stm32h7xx_hal_gpio.o
 .text.HAL_GPIO_LockPin
                0x00000000       0x30 build/stm32h7xx_hal_gpio.o
 .text.HAL_GPIO_EXTI_Callback
                0x00000000        0x4 build/stm32h7xx_hal_gpio.o
 .text.HAL_GPIO_EXTI_IRQHandler
                0x00000000       0x1c build/stm32h7xx_hal_gpio.o
 .text          0x00000000        0x0 build/stm32h7xx_hal_hsem.o
 .data          0x00000000        0x0 build/stm32h7xx_hal_hsem.o
 .bss           0x00000000        0x0 build/stm32h7xx_hal_hsem.o
 .text.HAL_HSEM_Take
                0x00000000       0x24 build/stm32h7xx_hal_hsem.o
 .text.HAL_HSEM_FastTake
                0x00000000       0x20 build/stm32h7xx_hal_hsem.o
 .text.HAL_HSEM_IsSemTaken
                0x00000000       0x18 build/stm32h7xx_hal_hsem.o
 .text.HAL_HSEM_Release
                0x00000000       0x10 build/stm32h7xx_hal_hsem.o
 .text.HAL_HSEM_ReleaseAll
                0x00000000       0x14 build/stm32h7xx_hal_hsem.o
 .text.HAL_HSEM_SetClearKey
                0x00000000       0x18 build/stm32h7xx_hal_hsem.o
 .text.HAL_HSEM_GetClearKey
                0x00000000       0x10 build/stm32h7xx_hal_hsem.o
 .text.HAL_HSEM_ActivateNotification
                0x00000000       0x10 build/stm32h7xx_hal_hsem.o
 .text.HAL_HSEM_DeactivateNotification
                0x00000000       0x10 build/stm32h7xx_hal_hsem.o
 .text.HAL_HSEM_FreeCallback
                0x00000000        0x4 build/stm32h7xx_hal_hsem.o
 .text.HAL_HSEM_IRQHandler
                0x00000000       0x1c build/stm32h7xx_hal_hsem.o
 .debug_info    0x00000000      0x424 build/stm32h7xx_hal_hsem.o
 .debug_abbrev  0x00000000      0x1a9 build/stm32h7xx_hal_hsem.o
 .debug_loc     0x00000000      0x19b build/stm32h7xx_hal_hsem.o
 .debug_aranges
                0x00000000       0x70 build/stm32h7xx_hal_hsem.o
 .debug_ranges  0x00000000       0x60 build/stm32h7xx_hal_hsem.o
 .debug_line    0x00000000      0x243 build/stm32h7xx_hal_hsem.o
 .debug_str     0x00000000      0x37b build/stm32h7xx_hal_hsem.o
 .comment       0x00000000       0x6f build/stm32h7xx_hal_hsem.o
 .debug_frame   0x00000000       0xc8 build/stm32h7xx_hal_hsem.o
 .ARM.attributes
                0x00000000       0x37 build/stm32h7xx_hal_hsem.o
 .text          0x00000000        0x0 build/stm32h7xx_hal_dma.o
 .data          0x00000000        0x0 build/stm32h7xx_hal_dma.o
 .bss           0x00000000        0x0 build/stm32h7xx_hal_dma.o
 .text.HAL_DMA_DeInit
                0x00000000      0x22c build/stm32h7xx_hal_dma.o
 .text.HAL_DMA_Start
                0x00000000      0x148 build/stm32h7xx_hal_dma.o
 .text.HAL_DMA_Abort
                0x00000000      0x480 build/stm32h7xx_hal_dma.o
 .text.HAL_DMA_PollForTransfer
                0x00000000      0x58c build/stm32h7xx_hal_dma.o
 .text.HAL_DMA_RegisterCallback
                0x00000000       0x64 build/stm32h7xx_hal_dma.o
 .text.HAL_DMA_UnRegisterCallback
                0x00000000       0x78 build/stm32h7xx_hal_dma.o
 .text.HAL_DMA_GetState
                0x00000000        0x8 build/stm32h7xx_hal_dma.o
 .text.HAL_DMA_GetError
                0x00000000        0x4 build/stm32h7xx_hal_dma.o
 .text          0x00000000        0x0 build/stm32h7xx_hal_dma_ex.o
 .data          0x00000000        0x0 build/stm32h7xx_hal_dma_ex.o
 .bss           0x00000000        0x0 build/stm32h7xx_hal_dma_ex.o
 .text.DMA_MultiBufferSetConfig
                0x00000000       0xe8 build/stm32h7xx_hal_dma_ex.o
 .text.HAL_DMAEx_MultiBufferStart
                0x00000000      0x2b8 build/stm32h7xx_hal_dma_ex.o
 .text.HAL_DMAEx_MultiBufferStart_IT
                0x00000000      0x4c0 build/stm32h7xx_hal_dma_ex.o
 .text.HAL_DMAEx_ChangeMemory
                0x00000000       0xc8 build/stm32h7xx_hal_dma_ex.o
 .text.HAL_DMAEx_ConfigMuxSync
                0x00000000       0x70 build/stm32h7xx_hal_dma_ex.o
 .text.HAL_DMAEx_ConfigMuxRequestGenerator
                0x00000000       0x5c build/stm32h7xx_hal_dma_ex.o
 .text.HAL_DMAEx_EnableMuxRequestGenerator
                0x00000000       0x24 build/stm32h7xx_hal_dma_ex.o
 .text.HAL_DMAEx_DisableMuxRequestGenerator
                0x00000000       0x24 build/stm32h7xx_hal_dma_ex.o
 .text.HAL_DMAEx_MUX_IRQHandler
                0x00000000       0x5c build/stm32h7xx_hal_dma_ex.o
 .debug_info    0x00000000      0x93f build/stm32h7xx_hal_dma_ex.o
 .debug_abbrev  0x00000000      0x1e8 build/stm32h7xx_hal_dma_ex.o
 .debug_loc     0x00000000      0x7a6 build/stm32h7xx_hal_dma_ex.o
 .debug_aranges
                0x00000000       0x60 build/stm32h7xx_hal_dma_ex.o
 .debug_ranges  0x00000000       0x50 build/stm32h7xx_hal_dma_ex.o
 .debug_line    0x00000000      0x744 build/stm32h7xx_hal_dma_ex.o
 .debug_str     0x00000000      0x803 build/stm32h7xx_hal_dma_ex.o
 .comment       0x00000000       0x6f build/stm32h7xx_hal_dma_ex.o
 .debug_frame   0x00000000       0xfc build/stm32h7xx_hal_dma_ex.o
 .ARM.attributes
                0x00000000       0x37 build/stm32h7xx_hal_dma_ex.o
 .text          0x00000000        0x0 build/stm32h7xx_hal_mdma.o
 .data          0x00000000        0x0 build/stm32h7xx_hal_mdma.o
 .bss           0x00000000        0x0 build/stm32h7xx_hal_mdma.o
 .text.MDMA_SetConfig
                0x00000000       0x88 build/stm32h7xx_hal_mdma.o
 .text.MDMA_Init
                0x00000000       0xb8 build/stm32h7xx_hal_mdma.o
 .text.HAL_MDMA_Init
                0x00000000       0x64 build/stm32h7xx_hal_mdma.o
 .text.HAL_MDMA_DeInit
                0x00000000       0x58 build/stm32h7xx_hal_mdma.o
 .text.HAL_MDMA_ConfigPostRequestMask
                0x00000000       0x70 build/stm32h7xx_hal_mdma.o
 .text.HAL_MDMA_RegisterCallback
                0x00000000       0x64 build/stm32h7xx_hal_mdma.o
 .text.HAL_MDMA_UnRegisterCallback
                0x00000000       0x78 build/stm32h7xx_hal_mdma.o
 .text.HAL_MDMA_LinkedList_CreateNode
                0x00000000      0x10c build/stm32h7xx_hal_mdma.o
 .text.HAL_MDMA_LinkedList_AddNode
                0x00000000       0xdc build/stm32h7xx_hal_mdma.o
 .text.HAL_MDMA_LinkedList_RemoveNode
                0x00000000       0xdc build/stm32h7xx_hal_mdma.o
 .text.HAL_MDMA_LinkedList_EnableCircularMode
                0x00000000       0x58 build/stm32h7xx_hal_mdma.o
 .text.HAL_MDMA_LinkedList_DisableCircularMode
                0x00000000       0x58 build/stm32h7xx_hal_mdma.o
 .text.HAL_MDMA_Start
                0x00000000       0x78 build/stm32h7xx_hal_mdma.o
 .text.HAL_MDMA_Start_IT
                0x00000000       0xac build/stm32h7xx_hal_mdma.o
 .text.HAL_MDMA_Abort
                0x00000000       0x80 build/stm32h7xx_hal_mdma.o
 .text.HAL_MDMA_Abort_IT
                0x00000000       0x2c build/stm32h7xx_hal_mdma.o
 .text.HAL_MDMA_PollForTransfer
                0x00000000      0x130 build/stm32h7xx_hal_mdma.o
 .text.HAL_MDMA_GenerateSWRequest
                0x00000000       0x40 build/stm32h7xx_hal_mdma.o
 .text.HAL_MDMA_IRQHandler
                0x00000000      0x1b0 build/stm32h7xx_hal_mdma.o
 .text.HAL_MDMA_GetState
                0x00000000        0x8 build/stm32h7xx_hal_mdma.o
 .text.HAL_MDMA_GetError
                0x00000000        0x4 build/stm32h7xx_hal_mdma.o
 .debug_info    0x00000000      0xe25 build/stm32h7xx_hal_mdma.o
 .debug_abbrev  0x00000000      0x24a build/stm32h7xx_hal_mdma.o
 .debug_loc     0x00000000     0x13f2 build/stm32h7xx_hal_mdma.o
 .debug_aranges
                0x00000000       0xc0 build/stm32h7xx_hal_mdma.o
 .debug_ranges  0x00000000       0xb0 build/stm32h7xx_hal_mdma.o
 .debug_line    0x00000000      0x6d8 build/stm32h7xx_hal_mdma.o
 .debug_str     0x00000000      0xa28 build/stm32h7xx_hal_mdma.o
 .comment       0x00000000       0x6f build/stm32h7xx_hal_mdma.o
 .debug_frame   0x00000000      0x26c build/stm32h7xx_hal_mdma.o
 .ARM.attributes
                0x00000000       0x37 build/stm32h7xx_hal_mdma.o
 .text          0x00000000        0x0 build/stm32h7xx_hal_pwr.o
 .data          0x00000000        0x0 build/stm32h7xx_hal_pwr.o
 .bss           0x00000000        0x0 build/stm32h7xx_hal_pwr.o
 .text.HAL_PWR_DeInit
                0x00000000        0x4 build/stm32h7xx_hal_pwr.o
 .text.HAL_PWR_EnableBkUpAccess
                0x00000000       0x10 build/stm32h7xx_hal_pwr.o
 .text.HAL_PWR_DisableBkUpAccess
                0x00000000       0x10 build/stm32h7xx_hal_pwr.o
 .text.HAL_PWR_ConfigPVD
                0x00000000       0xa0 build/stm32h7xx_hal_pwr.o
 .text.HAL_PWR_EnablePVD
                0x00000000       0x10 build/stm32h7xx_hal_pwr.o
 .text.HAL_PWR_DisablePVD
                0x00000000       0x10 build/stm32h7xx_hal_pwr.o
 .text.HAL_PWR_EnableWakeUpPin
                0x00000000       0x18 build/stm32h7xx_hal_pwr.o
 .text.HAL_PWR_DisableWakeUpPin
                0x00000000       0x14 build/stm32h7xx_hal_pwr.o
 .text.HAL_PWR_EnterSLEEPMode
                0x00000000       0x1c build/stm32h7xx_hal_pwr.o
 .text.HAL_PWR_EnterSTOPMode
                0x00000000       0x4c build/stm32h7xx_hal_pwr.o
 .text.HAL_PWR_EnterSTANDBYMode
                0x00000000       0x30 build/stm32h7xx_hal_pwr.o
 .text.HAL_PWR_EnableSleepOnExit
                0x00000000       0x10 build/stm32h7xx_hal_pwr.o
 .text.HAL_PWR_DisableSleepOnExit
                0x00000000       0x10 build/stm32h7xx_hal_pwr.o
 .text.HAL_PWR_EnableSEVOnPend
                0x00000000       0x10 build/stm32h7xx_hal_pwr.o
 .text.HAL_PWR_DisableSEVOnPend
                0x00000000       0x10 build/stm32h7xx_hal_pwr.o
 .text.HAL_PWR_PVDCallback
                0x00000000        0x4 build/stm32h7xx_hal_pwr.o
 .text.HAL_PWR_PVD_IRQHandler
                0x00000000       0x28 build/stm32h7xx_hal_pwr.o
 .debug_info    0x00000000      0xa2b build/stm32h7xx_hal_pwr.o
 .debug_abbrev  0x00000000      0x17f build/stm32h7xx_hal_pwr.o
 .debug_loc     0x00000000       0xaf build/stm32h7xx_hal_pwr.o
 .debug_aranges
                0x00000000       0xa0 build/stm32h7xx_hal_pwr.o
 .debug_ranges  0x00000000       0x90 build/stm32h7xx_hal_pwr.o
 .debug_line    0x00000000      0x2de build/stm32h7xx_hal_pwr.o
 .debug_str     0x00000000      0x622 build/stm32h7xx_hal_pwr.o
 .comment       0x00000000       0x6f build/stm32h7xx_hal_pwr.o
 .debug_frame   0x00000000      0x128 build/stm32h7xx_hal_pwr.o
 .ARM.attributes
                0x00000000       0x37 build/stm32h7xx_hal_pwr.o
 .text          0x00000000        0x0 build/stm32h7xx_hal_pwr_ex.o
 .data          0x00000000        0x0 build/stm32h7xx_hal_pwr_ex.o
 .bss           0x00000000        0x0 build/stm32h7xx_hal_pwr_ex.o
 .text.HAL_PWREx_GetSupplyConfig
                0x00000000       0x10 build/stm32h7xx_hal_pwr_ex.o
 .text.HAL_PWREx_ControlVoltageScaling
                0x00000000       0xdc build/stm32h7xx_hal_pwr_ex.o
 .text.HAL_PWREx_GetVoltageRange
                0x00000000       0x10 build/stm32h7xx_hal_pwr_ex.o
 .text.HAL_PWREx_ControlStopModeVoltageScaling
                0x00000000       0x14 build/stm32h7xx_hal_pwr_ex.o
 .text.HAL_PWREx_GetStopModeVoltageRange
                0x00000000       0x10 build/stm32h7xx_hal_pwr_ex.o
 .text.HAL_PWREx_EnterSTOPMode
                0x00000000       0x68 build/stm32h7xx_hal_pwr_ex.o
 .text.HAL_PWREx_ClearPendingEvent
                0x00000000        0x4 build/stm32h7xx_hal_pwr_ex.o
 .text.HAL_PWREx_EnterSTANDBYMode
                0x00000000       0x40 build/stm32h7xx_hal_pwr_ex.o
 .text.HAL_PWREx_ConfigD3Domain
                0x00000000       0x14 build/stm32h7xx_hal_pwr_ex.o
 .text.HAL_PWREx_EnableFlashPowerDown
                0x00000000       0x10 build/stm32h7xx_hal_pwr_ex.o
 .text.HAL_PWREx_DisableFlashPowerDown
                0x00000000       0x10 build/stm32h7xx_hal_pwr_ex.o
 .text.HAL_PWREx_EnableWakeUpPin
                0x00000000       0x8c build/stm32h7xx_hal_pwr_ex.o
 .text.HAL_PWREx_DisableWakeUpPin
                0x00000000       0x10 build/stm32h7xx_hal_pwr_ex.o
 .text.HAL_PWREx_GetWakeupFlag
                0x00000000        0xc build/stm32h7xx_hal_pwr_ex.o
 .text.HAL_PWREx_ClearWakeupFlag
                0x00000000       0x1c build/stm32h7xx_hal_pwr_ex.o
 .text.HAL_PWREx_WKUP1_Callback
                0x00000000        0x4 build/stm32h7xx_hal_pwr_ex.o
 .text.HAL_PWREx_WKUP2_Callback
                0x00000000        0x4 build/stm32h7xx_hal_pwr_ex.o
 .text.HAL_PWREx_WKUP3_Callback
                0x00000000        0x4 build/stm32h7xx_hal_pwr_ex.o
 .text.HAL_PWREx_WKUP4_Callback
                0x00000000        0x4 build/stm32h7xx_hal_pwr_ex.o
 .text.HAL_PWREx_WKUP5_Callback
                0x00000000        0x4 build/stm32h7xx_hal_pwr_ex.o
 .text.HAL_PWREx_WKUP6_Callback
                0x00000000        0x4 build/stm32h7xx_hal_pwr_ex.o
 .text.HAL_PWREx_WAKEUP_PIN_IRQHandler
                0x00000000       0x98 build/stm32h7xx_hal_pwr_ex.o
 .text.HAL_PWREx_EnableBkUpReg
                0x00000000       0x38 build/stm32h7xx_hal_pwr_ex.o
 .text.HAL_PWREx_DisableBkUpReg
                0x00000000       0x38 build/stm32h7xx_hal_pwr_ex.o
 .text.HAL_PWREx_EnableUSBReg
                0x00000000       0x38 build/stm32h7xx_hal_pwr_ex.o
 .text.HAL_PWREx_DisableUSBReg
                0x00000000       0x38 build/stm32h7xx_hal_pwr_ex.o
 .text.HAL_PWREx_EnableUSBVoltageDetector
                0x00000000       0x10 build/stm32h7xx_hal_pwr_ex.o
 .text.HAL_PWREx_DisableUSBVoltageDetector
                0x00000000       0x10 build/stm32h7xx_hal_pwr_ex.o
 .text.HAL_PWREx_EnableBatteryCharging
                0x00000000       0x1c build/stm32h7xx_hal_pwr_ex.o
 .text.HAL_PWREx_DisableBatteryCharging
                0x00000000       0x10 build/stm32h7xx_hal_pwr_ex.o
 .text.HAL_PWREx_EnableMonitoring
                0x00000000       0x10 build/stm32h7xx_hal_pwr_ex.o
 .text.HAL_PWREx_DisableMonitoring
                0x00000000       0x10 build/stm32h7xx_hal_pwr_ex.o
 .text.HAL_PWREx_GetTemperatureLevel
                0x00000000       0x28 build/stm32h7xx_hal_pwr_ex.o
 .text.HAL_PWREx_GetVBATLevel
                0x00000000       0x28 build/stm32h7xx_hal_pwr_ex.o
 .text.HAL_PWREx_ConfigAVD
                0x00000000       0x98 build/stm32h7xx_hal_pwr_ex.o
 .text.HAL_PWREx_EnableAVD
                0x00000000       0x10 build/stm32h7xx_hal_pwr_ex.o
 .text.HAL_PWREx_DisableAVD
                0x00000000       0x10 build/stm32h7xx_hal_pwr_ex.o
 .text.HAL_PWREx_AVDCallback
                0x00000000        0x4 build/stm32h7xx_hal_pwr_ex.o
 .text.HAL_PWREx_PVD_AVD_IRQHandler
                0x00000000       0x60 build/stm32h7xx_hal_pwr_ex.o
 .text          0x00000000        0x0 build/stm32h7xx_hal.o
 .data          0x00000000        0x0 build/stm32h7xx_hal.o
 .bss           0x00000000        0x0 build/stm32h7xx_hal.o
 .text.HAL_MspInit
                0x00000000        0x4 build/stm32h7xx_hal.o
 .text.HAL_MspDeInit
                0x00000000        0x4 build/stm32h7xx_hal.o
 .text.HAL_DeInit
                0x00000000       0x84 build/stm32h7xx_hal.o
 .text.HAL_IncTick
                0x00000000       0x18 build/stm32h7xx_hal.o
 .text.HAL_GetTickPrio
                0x00000000        0xc build/stm32h7xx_hal.o
 .text.HAL_SetTickFreq
                0x00000000       0x2c build/stm32h7xx_hal.o
 .text.HAL_GetTickFreq
                0x00000000        0xc build/stm32h7xx_hal.o
 .text.HAL_Delay
                0x00000000       0x28 build/stm32h7xx_hal.o
 .text.HAL_SuspendTick
                0x00000000       0x10 build/stm32h7xx_hal.o
 .text.HAL_ResumeTick
                0x00000000       0x10 build/stm32h7xx_hal.o
 .text.HAL_GetHalVersion
                0x00000000        0x8 build/stm32h7xx_hal.o
 .text.HAL_GetDEVID
                0x00000000       0x10 build/stm32h7xx_hal.o
 .text.HAL_GetUIDw0
                0x00000000        0xc build/stm32h7xx_hal.o
 .text.HAL_GetUIDw1
                0x00000000        0xc build/stm32h7xx_hal.o
 .text.HAL_GetUIDw2
                0x00000000        0xc build/stm32h7xx_hal.o
 .text.HAL_SYSCFG_VREFBUF_VoltageScalingConfig
                0x00000000       0x14 build/stm32h7xx_hal.o
 .text.HAL_SYSCFG_VREFBUF_HighImpedanceConfig
                0x00000000       0x14 build/stm32h7xx_hal.o
 .text.HAL_SYSCFG_VREFBUF_TrimmingConfig
                0x00000000       0x14 build/stm32h7xx_hal.o
 .text.HAL_SYSCFG_EnableVREFBUF
                0x00000000       0x34 build/stm32h7xx_hal.o
 .text.HAL_SYSCFG_DisableVREFBUF
                0x00000000       0x10 build/stm32h7xx_hal.o
 .text.HAL_SYSCFG_ETHInterfaceSelect
                0x00000000       0x14 build/stm32h7xx_hal.o
 .text.HAL_SYSCFG_AnalogSwitchConfig
                0x00000000       0x14 build/stm32h7xx_hal.o
 .text.HAL_SYSCFG_EnableBOOST
                0x00000000       0x10 build/stm32h7xx_hal.o
 .text.HAL_SYSCFG_DisableBOOST
                0x00000000       0x10 build/stm32h7xx_hal.o
 .text.HAL_SYSCFG_CM7BootAddConfig
                0x00000000       0x34 build/stm32h7xx_hal.o
 .text.HAL_EnableCompensationCell
                0x00000000       0x10 build/stm32h7xx_hal.o
 .text.HAL_DisableCompensationCell
                0x00000000       0x10 build/stm32h7xx_hal.o
 .text.HAL_SYSCFG_EnableIOSpeedOptimize
                0x00000000       0x10 build/stm32h7xx_hal.o
 .text.HAL_SYSCFG_DisableIOSpeedOptimize
                0x00000000       0x10 build/stm32h7xx_hal.o
 .text.HAL_SYSCFG_CompensationCodeSelect
                0x00000000       0x14 build/stm32h7xx_hal.o
 .text.HAL_SYSCFG_CompensationCodeConfig
                0x00000000       0x18 build/stm32h7xx_hal.o
 .text.HAL_DBGMCU_EnableDBGSleepMode
                0x00000000       0x10 build/stm32h7xx_hal.o
 .text.HAL_DBGMCU_DisableDBGSleepMode
                0x00000000       0x10 build/stm32h7xx_hal.o
 .text.HAL_DBGMCU_EnableDBGStopMode
                0x00000000       0x10 build/stm32h7xx_hal.o
 .text.HAL_DBGMCU_DisableDBGStopMode
                0x00000000       0x10 build/stm32h7xx_hal.o
 .text.HAL_DBGMCU_EnableDBGStandbyMode
                0x00000000       0x10 build/stm32h7xx_hal.o
 .text.HAL_DBGMCU_DisableDBGStandbyMode
                0x00000000       0x10 build/stm32h7xx_hal.o
 .text.HAL_EnableDomain3DBGStopMode
                0x00000000       0x10 build/stm32h7xx_hal.o
 .text.HAL_DisableDomain3DBGStopMode
                0x00000000       0x10 build/stm32h7xx_hal.o
 .text.HAL_EnableDomain3DBGStandbyMode
                0x00000000       0x10 build/stm32h7xx_hal.o
 .text.HAL_DisableDomain3DBGStandbyMode
                0x00000000       0x10 build/stm32h7xx_hal.o
 .text.HAL_SetFMCMemorySwappingConfig
                0x00000000       0x14 build/stm32h7xx_hal.o
 .text.HAL_GetFMCMemorySwappingConfig
                0x00000000       0x10 build/stm32h7xx_hal.o
 .text.HAL_EXTI_EdgeConfig
                0x00000000       0x48 build/stm32h7xx_hal.o
 .text.HAL_EXTI_GenerateSWInterrupt
                0x00000000       0x24 build/stm32h7xx_hal.o
 .text.HAL_EXTI_D1_ClearFlag
                0x00000000       0x18 build/stm32h7xx_hal.o
 .text.HAL_EXTI_D1_EventInputConfig
                0x00000000       0x80 build/stm32h7xx_hal.o
 .text.HAL_EXTI_D3_EventInputConfig
                0x00000000       0x74 build/stm32h7xx_hal.o
 .text          0x00000000        0x0 build/stm32h7xx_hal_i2c.o
 .data          0x00000000        0x0 build/stm32h7xx_hal_i2c.o
 .bss           0x00000000        0x0 build/stm32h7xx_hal_i2c.o
 .text.I2C_Flush_TXDR
                0x00000000       0x24 build/stm32h7xx_hal_i2c.o
 .text.I2C_TransferConfig
                0x00000000       0x38 build/stm32h7xx_hal_i2c.o
 .text.I2C_Enable_IRQ
                0x00000000       0x70 build/stm32h7xx_hal_i2c.o
 .text.I2C_Disable_IRQ
                0x00000000       0x70 build/stm32h7xx_hal_i2c.o
 .text.I2C_ConvertOtherXferOptions
                0x00000000       0x1c build/stm32h7xx_hal_i2c.o
 .text.I2C_IsAcknowledgeFailed
                0x00000000       0x90 build/stm32h7xx_hal_i2c.o
 .text.I2C_WaitOnTXISFlagUntilTimeout
                0x00000000       0x58 build/stm32h7xx_hal_i2c.o
 .text.I2C_WaitOnFlagUntilTimeout
                0x00000000       0x54 build/stm32h7xx_hal_i2c.o
 .text.I2C_RequestMemoryWrite
                0x00000000       0x70 build/stm32h7xx_hal_i2c.o
 .text.I2C_RequestMemoryRead
                0x00000000       0x70 build/stm32h7xx_hal_i2c.o
 .text.I2C_WaitOnSTOPFlagUntilTimeout
                0x00000000       0x50 build/stm32h7xx_hal_i2c.o
 .text.I2C_WaitOnRXNEFlagUntilTimeout
                0x00000000       0x98 build/stm32h7xx_hal_i2c.o
 .text.HAL_I2C_MspInit
                0x00000000        0x4 build/stm32h7xx_hal_i2c.o
 .text.HAL_I2C_Init
                0x00000000       0xbc build/stm32h7xx_hal_i2c.o
 .text.HAL_I2C_MspDeInit
                0x00000000        0x4 build/stm32h7xx_hal_i2c.o
 .text.HAL_I2C_DeInit
                0x00000000       0x34 build/stm32h7xx_hal_i2c.o
 .text.HAL_I2C_Master_Transmit
                0x00000000      0x17c build/stm32h7xx_hal_i2c.o
 .text.HAL_I2C_Master_Receive
                0x00000000      0x178 build/stm32h7xx_hal_i2c.o
 .text.HAL_I2C_Slave_Transmit
                0x00000000      0x184 build/stm32h7xx_hal_i2c.o
 .text.HAL_I2C_Slave_Receive
                0x00000000      0x174 build/stm32h7xx_hal_i2c.o
 .text.HAL_I2C_Master_Transmit_IT
                0x00000000       0x98 build/stm32h7xx_hal_i2c.o
 .text.HAL_I2C_Master_Receive_IT
                0x00000000       0x98 build/stm32h7xx_hal_i2c.o
 .text.HAL_I2C_Slave_Transmit_IT
                0x00000000       0x64 build/stm32h7xx_hal_i2c.o
 .text.HAL_I2C_Slave_Receive_IT
                0x00000000       0x64 build/stm32h7xx_hal_i2c.o
 .text.HAL_I2C_Master_Transmit_DMA
                0x00000000      0x154 build/stm32h7xx_hal_i2c.o
 .text.HAL_I2C_Master_Receive_DMA
                0x00000000      0x154 build/stm32h7xx_hal_i2c.o
 .text.HAL_I2C_Slave_Transmit_DMA
                0x00000000       0xf0 build/stm32h7xx_hal_i2c.o
 .text.HAL_I2C_Slave_Receive_DMA
                0x00000000       0xf0 build/stm32h7xx_hal_i2c.o
 .text.HAL_I2C_Mem_Write
                0x00000000      0x1ac build/stm32h7xx_hal_i2c.o
 .text.HAL_I2C_Mem_Read
                0x00000000      0x1b0 build/stm32h7xx_hal_i2c.o
 .text.HAL_I2C_Mem_Write_IT
                0x00000000       0xf0 build/stm32h7xx_hal_i2c.o
 .text.HAL_I2C_Mem_Read_IT
                0x00000000       0xf8 build/stm32h7xx_hal_i2c.o
 .text.HAL_I2C_Mem_Write_DMA
                0x00000000      0x194 build/stm32h7xx_hal_i2c.o
 .text.HAL_I2C_Mem_Read_DMA
                0x00000000      0x19c build/stm32h7xx_hal_i2c.o
 .text.HAL_I2C_IsDeviceReady
                0x00000000      0x17c build/stm32h7xx_hal_i2c.o
 .text.HAL_I2C_Master_Seq_Transmit_IT
                0x00000000       0xb4 build/stm32h7xx_hal_i2c.o
 .text.HAL_I2C_Master_Seq_Transmit_DMA
                0x00000000      0x170 build/stm32h7xx_hal_i2c.o
 .text.HAL_I2C_Master_Seq_Receive_IT
                0x00000000       0xb4 build/stm32h7xx_hal_i2c.o
 .text.HAL_I2C_Master_Seq_Receive_DMA
                0x00000000      0x170 build/stm32h7xx_hal_i2c.o
 .text.HAL_I2C_Slave_Seq_Transmit_IT
                0x00000000       0xd4 build/stm32h7xx_hal_i2c.o
 .text.HAL_I2C_Slave_Seq_Transmit_DMA
                0x00000000      0x194 build/stm32h7xx_hal_i2c.o
 .text.HAL_I2C_Slave_Seq_Receive_IT
                0x00000000       0xd4 build/stm32h7xx_hal_i2c.o
 .text.HAL_I2C_Slave_Seq_Receive_DMA
                0x00000000      0x194 build/stm32h7xx_hal_i2c.o
 .text.HAL_I2C_EnableListen_IT
                0x00000000       0x2c build/stm32h7xx_hal_i2c.o
 .text.HAL_I2C_DisableListen_IT
                0x00000000       0x3c build/stm32h7xx_hal_i2c.o
 .text.HAL_I2C_Master_Abort_IT
                0x00000000       0x84 build/stm32h7xx_hal_i2c.o
 .text.HAL_I2C_EV_IRQHandler
                0x00000000       0x10 build/stm32h7xx_hal_i2c.o
 .text.HAL_I2C_MasterTxCpltCallback
                0x00000000        0x4 build/stm32h7xx_hal_i2c.o
 .text.HAL_I2C_MasterRxCpltCallback
                0x00000000        0x4 build/stm32h7xx_hal_i2c.o
 .text.I2C_ITMasterSeqCplt
                0x00000000       0x54 build/stm32h7xx_hal_i2c.o
 .text.HAL_I2C_SlaveTxCpltCallback
                0x00000000        0x4 build/stm32h7xx_hal_i2c.o
 .text.HAL_I2C_SlaveRxCpltCallback
                0x00000000        0x4 build/stm32h7xx_hal_i2c.o
 .text.I2C_ITSlaveSeqCplt
                0x00000000       0x80 build/stm32h7xx_hal_i2c.o
 .text.I2C_DMASlaveTransmitCplt
                0x00000000       0x20 build/stm32h7xx_hal_i2c.o
 .text.I2C_DMASlaveReceiveCplt
                0x00000000       0xa0 build/stm32h7xx_hal_i2c.o
 .text.HAL_I2C_AddrCallback
                0x00000000        0x4 build/stm32h7xx_hal_i2c.o
 .text.I2C_ITAddrCplt
                0x00000000       0xa8 build/stm32h7xx_hal_i2c.o
 .text.HAL_I2C_ListenCpltCallback
                0x00000000        0x4 build/stm32h7xx_hal_i2c.o
 .text.I2C_ITListenCplt
                0x00000000       0x68 build/stm32h7xx_hal_i2c.o
 .text.HAL_I2C_MemTxCpltCallback
                0x00000000        0x4 build/stm32h7xx_hal_i2c.o
 .text.HAL_I2C_MemRxCpltCallback
                0x00000000        0x4 build/stm32h7xx_hal_i2c.o
 .text.HAL_I2C_ErrorCallback
                0x00000000        0x4 build/stm32h7xx_hal_i2c.o
 .text.HAL_I2C_AbortCpltCallback
                0x00000000        0x4 build/stm32h7xx_hal_i2c.o
 .text.I2C_TreatErrorCallback
                0x00000000       0x30 build/stm32h7xx_hal_i2c.o
 .text.I2C_ITError
                0x00000000      0x104 build/stm32h7xx_hal_i2c.o
 .text.I2C_ITSlaveCplt
                0x00000000      0x23c build/stm32h7xx_hal_i2c.o
 .text.I2C_Slave_ISR_IT
                0x00000000      0x150 build/stm32h7xx_hal_i2c.o
 .text.I2C_ITMasterCplt
                0x00000000      0x12c build/stm32h7xx_hal_i2c.o
 .text.I2C_Master_ISR_IT
                0x00000000      0x180 build/stm32h7xx_hal_i2c.o
 .text.I2C_Slave_ISR_DMA
                0x00000000      0x214 build/stm32h7xx_hal_i2c.o
 .text.I2C_Master_ISR_DMA
                0x00000000      0x144 build/stm32h7xx_hal_i2c.o
 .text.I2C_DMAError
                0x00000000      0x134 build/stm32h7xx_hal_i2c.o
 .text.I2C_DMAMasterTransmitCplt
                0x00000000       0x5c build/stm32h7xx_hal_i2c.o
 .text.I2C_DMAMasterReceiveCplt
                0x00000000       0x5c build/stm32h7xx_hal_i2c.o
 .text.HAL_I2C_ER_IRQHandler
                0x00000000       0x68 build/stm32h7xx_hal_i2c.o
 .text.I2C_DMAAbort
                0x00000000       0x1c build/stm32h7xx_hal_i2c.o
 .text.HAL_I2C_GetState
                0x00000000        0x8 build/stm32h7xx_hal_i2c.o
 .text.HAL_I2C_GetMode
                0x00000000        0x8 build/stm32h7xx_hal_i2c.o
 .text.HAL_I2C_GetError
                0x00000000        0x4 build/stm32h7xx_hal_i2c.o
 .debug_info    0x00000000     0x3d8f build/stm32h7xx_hal_i2c.o
 .debug_abbrev  0x00000000      0x27f build/stm32h7xx_hal_i2c.o
 .debug_loc     0x00000000     0x4841 build/stm32h7xx_hal_i2c.o
 .debug_aranges
                0x00000000      0x290 build/stm32h7xx_hal_i2c.o
 .debug_ranges  0x00000000      0x280 build/stm32h7xx_hal_i2c.o
 .debug_line    0x00000000     0x16b4 build/stm32h7xx_hal_i2c.o
 .debug_str     0x00000000     0x1142 build/stm32h7xx_hal_i2c.o
 .comment       0x00000000       0x6f build/stm32h7xx_hal_i2c.o
 .debug_frame   0x00000000      0x8f0 build/stm32h7xx_hal_i2c.o
 .ARM.attributes
                0x00000000       0x37 build/stm32h7xx_hal_i2c.o
 .text          0x00000000        0x0 build/stm32h7xx_hal_i2c_ex.o
 .data          0x00000000        0x0 build/stm32h7xx_hal_i2c_ex.o
 .bss           0x00000000        0x0 build/stm32h7xx_hal_i2c_ex.o
 .text.HAL_I2CEx_ConfigAnalogFilter
                0x00000000       0x5c build/stm32h7xx_hal_i2c_ex.o
 .text.HAL_I2CEx_ConfigDigitalFilter
                0x00000000       0x58 build/stm32h7xx_hal_i2c_ex.o
 .text.HAL_I2CEx_EnableWakeUp
                0x00000000       0x54 build/stm32h7xx_hal_i2c_ex.o
 .text.HAL_I2CEx_DisableWakeUp
                0x00000000       0x54 build/stm32h7xx_hal_i2c_ex.o
 .text.HAL_I2CEx_EnableFastModePlus
                0x00000000       0x30 build/stm32h7xx_hal_i2c_ex.o
 .text.HAL_I2CEx_DisableFastModePlus
                0x00000000       0x34 build/stm32h7xx_hal_i2c_ex.o
 .debug_info    0x00000000      0xf15 build/stm32h7xx_hal_i2c_ex.o
 .debug_abbrev  0x00000000      0x191 build/stm32h7xx_hal_i2c_ex.o
 .debug_loc     0x00000000      0x25c build/stm32h7xx_hal_i2c_ex.o
 .debug_aranges
                0x00000000       0x48 build/stm32h7xx_hal_i2c_ex.o
 .debug_ranges  0x00000000       0x38 build/stm32h7xx_hal_i2c_ex.o
 .debug_line    0x00000000      0x2e6 build/stm32h7xx_hal_i2c_ex.o
 .debug_str     0x00000000      0xb4c build/stm32h7xx_hal_i2c_ex.o
 .comment       0x00000000       0x6f build/stm32h7xx_hal_i2c_ex.o
 .debug_frame   0x00000000       0x80 build/stm32h7xx_hal_i2c_ex.o
 .ARM.attributes
                0x00000000       0x37 build/stm32h7xx_hal_i2c_ex.o
 .text          0x00000000        0x0 build/stm32h7xx_hal_exti.o
 .data          0x00000000        0x0 build/stm32h7xx_hal_exti.o
 .bss           0x00000000        0x0 build/stm32h7xx_hal_exti.o
 .text.HAL_EXTI_SetConfigLine
                0x00000000      0x13c build/stm32h7xx_hal_exti.o
 .text.HAL_EXTI_GetConfigLine
                0x00000000      0x110 build/stm32h7xx_hal_exti.o
 .text.HAL_EXTI_ClearConfigLine
                0x00000000       0xe8 build/stm32h7xx_hal_exti.o
 .text.HAL_EXTI_RegisterCallback
                0x00000000       0x14 build/stm32h7xx_hal_exti.o
 .text.HAL_EXTI_GetHandle
                0x00000000        0xc build/stm32h7xx_hal_exti.o
 .text.HAL_EXTI_IRQHandler
                0x00000000       0x2c build/stm32h7xx_hal_exti.o
 .text.HAL_EXTI_GetPending
                0x00000000       0x20 build/stm32h7xx_hal_exti.o
 .text.HAL_EXTI_ClearPending
                0x00000000       0x1c build/stm32h7xx_hal_exti.o
 .text.HAL_EXTI_GenerateSWI
                0x00000000       0x1c build/stm32h7xx_hal_exti.o
 .debug_info    0x00000000      0xa25 build/stm32h7xx_hal_exti.o
 .debug_abbrev  0x00000000      0x1dd build/stm32h7xx_hal_exti.o
 .debug_loc     0x00000000      0xadc build/stm32h7xx_hal_exti.o
 .debug_aranges
                0x00000000       0x60 build/stm32h7xx_hal_exti.o
 .debug_ranges  0x00000000       0x50 build/stm32h7xx_hal_exti.o
 .debug_line    0x00000000      0x30a build/stm32h7xx_hal_exti.o
 .debug_str     0x00000000      0x51d build/stm32h7xx_hal_exti.o
 .comment       0x00000000       0x6f build/stm32h7xx_hal_exti.o
 .debug_frame   0x00000000      0x118 build/stm32h7xx_hal_exti.o
 .ARM.attributes
                0x00000000       0x37 build/stm32h7xx_hal_exti.o
 .text          0x00000000        0x0 build/system_stm32h7xx.o
 .data          0x00000000        0x0 build/system_stm32h7xx.o
 .bss           0x00000000        0x0 build/system_stm32h7xx.o
 .text.SystemCoreClockUpdate
                0x00000000      0x1d0 build/system_stm32h7xx.o
 .text          0x00000000        0x0 build/gpio.o
 .data          0x00000000        0x0 build/gpio.o
 .bss           0x00000000        0x0 build/gpio.o
 .text          0x00000000        0x0 build/main.o
 .data          0x00000000        0x0 build/main.o
 .bss           0x00000000        0x0 build/main.o
 .text.SystemClock_Config
                0x00000000       0xc4 build/main.o
 .debug_info    0x00000000      0x6c9 build/main.o
 .debug_abbrev  0x00000000      0x175 build/main.o
 .debug_loc     0x00000000       0x39 build/main.o
 .debug_aranges
                0x00000000       0x20 build/main.o
 .debug_ranges  0x00000000       0x10 build/main.o
 .debug_line    0x00000000      0x1c1 build/main.o
 .debug_str     0x00000000      0x496 build/main.o
 .comment       0x00000000       0x6f build/main.o
 .debug_frame   0x00000000       0x2c build/main.o
 .ARM.attributes
                0x00000000       0x37 build/main.o
 .text          0x00000000        0x0 build/dma.o
 .data          0x00000000        0x0 build/dma.o
 .bss           0x00000000        0x0 build/dma.o
 .text          0x00000000        0x0 build/usart.o
 .data          0x00000000        0x0 build/usart.o
 .bss           0x00000000        0x0 build/usart.o
 .text.HAL_UART_MspDeInit
                0x00000000       0x44 build/usart.o
 .text          0x00000000        0x0 build/stm32h7xx_hal_uart.o
 .data          0x00000000        0x0 build/stm32h7xx_hal_uart.o
 .bss           0x00000000        0x0 build/stm32h7xx_hal_uart.o
 .text.UART_TxISR_8BIT
                0x00000000       0x44 build/stm32h7xx_hal_uart.o
 .text.UART_TxISR_16BIT
                0x00000000       0x48 build/stm32h7xx_hal_uart.o
 .text.UART_TxISR_8BIT_FIFOEN
                0x00000000       0x5c build/stm32h7xx_hal_uart.o
 .text.UART_TxISR_16BIT_FIFOEN
                0x00000000       0x60 build/stm32h7xx_hal_uart.o
 .text.HAL_UART_MspInit
                0x00000000        0x4 build/stm32h7xx_hal_uart.o
 .text.HAL_UART_MspDeInit
                0x00000000        0x4 build/stm32h7xx_hal_uart.o
 .text.HAL_UART_DeInit
                0x00000000       0x40 build/stm32h7xx_hal_uart.o
 .text.HAL_UART_Transmit_IT
                0x00000000       0xb0 build/stm32h7xx_hal_uart.o
 .text.HAL_UART_Receive_IT
                0x00000000      0x120 build/stm32h7xx_hal_uart.o
 .text.HAL_UART_Transmit_DMA
                0x00000000       0xa8 build/stm32h7xx_hal_uart.o
 .text.HAL_UART_DMAPause
                0x00000000       0x6c build/stm32h7xx_hal_uart.o
 .text.HAL_UART_DMAResume
                0x00000000       0x5c build/stm32h7xx_hal_uart.o
 .text.HAL_UART_DMAStop
                0x00000000       0x8c build/stm32h7xx_hal_uart.o
 .text.HAL_UART_Abort
                0x00000000       0xc8 build/stm32h7xx_hal_uart.o
 .text.HAL_UART_AbortTransmit
                0x00000000       0x70 build/stm32h7xx_hal_uart.o
 .text.HAL_UART_AbortReceive
                0x00000000       0x70 build/stm32h7xx_hal_uart.o
 .text.UART_DMATransmitCplt
                0x00000000       0x30 build/stm32h7xx_hal_uart.o
 .text.HAL_UART_TxHalfCpltCallback
                0x00000000        0x4 build/stm32h7xx_hal_uart.o
 .text.UART_DMATxHalfCplt
                0x00000000        0xc build/stm32h7xx_hal_uart.o
 .text.UART_RxISR_8BIT
                0x00000000       0x68 build/stm32h7xx_hal_uart.o
 .text.UART_RxISR_16BIT
                0x00000000       0x64 build/stm32h7xx_hal_uart.o
 .text.UART_RxISR_8BIT_FIFOEN
                0x00000000       0xa8 build/stm32h7xx_hal_uart.o
 .text.UART_RxISR_16BIT_FIFOEN
                0x00000000       0xa8 build/stm32h7xx_hal_uart.o
 .text.HAL_UART_AbortCpltCallback
                0x00000000        0x4 build/stm32h7xx_hal_uart.o
 .text.HAL_UART_Abort_IT
                0x00000000       0xf8 build/stm32h7xx_hal_uart.o
 .text.UART_DMARxAbortCallback
                0x00000000       0x40 build/stm32h7xx_hal_uart.o
 .text.UART_DMATxAbortCallback
                0x00000000       0x48 build/stm32h7xx_hal_uart.o
 .text.HAL_UART_AbortTransmitCpltCallback
                0x00000000        0x4 build/stm32h7xx_hal_uart.o
 .text.HAL_UART_AbortTransmit_IT
                0x00000000       0x84 build/stm32h7xx_hal_uart.o
 .text.UART_DMATxOnlyAbortCallback
                0x00000000       0x28 build/stm32h7xx_hal_uart.o
 .text.HAL_UART_AbortReceiveCpltCallback
                0x00000000        0x4 build/stm32h7xx_hal_uart.o
 .text.HAL_UART_AbortReceive_IT
                0x00000000       0x88 build/stm32h7xx_hal_uart.o
 .text.UART_DMARxOnlyAbortCallback
                0x00000000       0x28 build/stm32h7xx_hal_uart.o
 .text.HAL_UART_ReceiverTimeout_Config
                0x00000000       0x18 build/stm32h7xx_hal_uart.o
 .text.HAL_UART_EnableReceiverTimeout
                0x00000000       0x4c build/stm32h7xx_hal_uart.o
 .text.HAL_UART_DisableReceiverTimeout
                0x00000000       0x4c build/stm32h7xx_hal_uart.o
 .text.HAL_MultiProcessor_EnterMuteMode
                0x00000000        0xc build/stm32h7xx_hal_uart.o
 .text.HAL_HalfDuplex_EnableTransmitter
                0x00000000       0x3c build/stm32h7xx_hal_uart.o
 .text.HAL_HalfDuplex_EnableReceiver
                0x00000000       0x3c build/stm32h7xx_hal_uart.o
 .text.HAL_LIN_SendBreak
                0x00000000       0x34 build/stm32h7xx_hal_uart.o
 .text.HAL_UART_GetState
                0x00000000        0xc build/stm32h7xx_hal_uart.o
 .text.HAL_UART_GetError
                0x00000000        0x8 build/stm32h7xx_hal_uart.o
 .text.HAL_UART_Receive
                0x00000000      0x124 build/stm32h7xx_hal_uart.o
 .text.HAL_HalfDuplex_Init
                0x00000000       0x70 build/stm32h7xx_hal_uart.o
 .text.HAL_LIN_Init
                0x00000000       0x94 build/stm32h7xx_hal_uart.o
 .text.HAL_MultiProcessor_Init
                0x00000000       0x8c build/stm32h7xx_hal_uart.o
 .text.HAL_MultiProcessor_EnableMuteMode
                0x00000000       0x30 build/stm32h7xx_hal_uart.o
 .text.HAL_MultiProcessor_DisableMuteMode
                0x00000000       0x30 build/stm32h7xx_hal_uart.o
 .text          0x00000000        0x0 build/stm32h7xx_hal_uart_ex.o
 .data          0x00000000        0x0 build/stm32h7xx_hal_uart_ex.o
 .bss           0x00000000        0x0 build/stm32h7xx_hal_uart_ex.o
 .text.UARTEx_Wakeup_AddressConfig
                0x00000000       0x30 build/stm32h7xx_hal_uart_ex.o
 .text.HAL_RS485Ex_Init
                0x00000000       0x84 build/stm32h7xx_hal_uart_ex.o
 .text.HAL_MultiProcessorEx_AddressLength_Set
                0x00000000       0x34 build/stm32h7xx_hal_uart_ex.o
 .text.HAL_UARTEx_StopModeWakeUpSourceConfig
                0x00000000       0x80 build/stm32h7xx_hal_uart_ex.o
 .text.HAL_UARTEx_EnableStopMode
                0x00000000       0x28 build/stm32h7xx_hal_uart_ex.o
 .text.HAL_UARTEx_DisableStopMode
                0x00000000       0x28 build/stm32h7xx_hal_uart_ex.o
 .text.HAL_UARTEx_DisableFifoMode
                0x00000000       0x40 build/stm32h7xx_hal_uart_ex.o
 .text          0x00000000        0x0 build/bsp_clk.o
 .data          0x00000000        0x0 build/bsp_clk.o
 .bss           0x00000000        0x0 build/bsp_clk.o
 .text.BSP_ClkInit
                0x00000000       0xe8 build/bsp_clk.o
 .text.BSP_ClkEnable
                0x00000000        0x4 build/bsp_clk.o
 .text.BSP_ClkDisable
                0x00000000        0x4 build/bsp_clk.o
 .text.BSP_ClkFreqGet
                0x00000000       0x2c build/bsp_clk.o
 .text.BSP_ClkFreqSet
                0x00000000        0x4 build/bsp_clk.o
 .debug_info    0x00000000      0xc70 build/bsp_clk.o
 .debug_abbrev  0x00000000      0x202 build/bsp_clk.o
 .debug_loc     0x00000000      0x13e build/bsp_clk.o
 .debug_aranges
                0x00000000       0x40 build/bsp_clk.o
 .debug_ranges  0x00000000       0x30 build/bsp_clk.o
 .debug_line    0x00000000      0x255 build/bsp_clk.o
 .debug_str     0x00000000      0x79c build/bsp_clk.o
 .comment       0x00000000       0x6f build/bsp_clk.o
 .debug_frame   0x00000000       0x78 build/bsp_clk.o
 .ARM.attributes
                0x00000000       0x37 build/bsp_clk.o
 .text          0x00000000        0x0 build/bsp_cpu.o
 .data          0x00000000        0x0 build/bsp_cpu.o
 .bss           0x00000000        0x0 build/bsp_cpu.o
 .text.CPU_TS_TmrInit
                0x00000000       0x4c build/bsp_cpu.o
 .text.CPU_TS_TmrRd
                0x00000000        0xc build/bsp_cpu.o
 .text.CPU_TS32_to_uSec
                0x00000000       0x28 build/bsp_cpu.o
 .debug_info    0x00000000      0x1e6 build/bsp_cpu.o
 .debug_abbrev  0x00000000      0x13b build/bsp_cpu.o
 .debug_loc     0x00000000       0xaa build/bsp_cpu.o
 .debug_aranges
                0x00000000       0x30 build/bsp_cpu.o
 .debug_ranges  0x00000000       0x20 build/bsp_cpu.o
 .debug_line    0x00000000       0xcf build/bsp_cpu.o
 .debug_str     0x00000000      0x259 build/bsp_cpu.o
 .comment       0x00000000       0x6f build/bsp_cpu.o
 .debug_frame   0x00000000       0x54 build/bsp_cpu.o
 .ARM.attributes
                0x00000000       0x37 build/bsp_cpu.o
 .text          0x00000000        0x0 build/bsp_led.o
 .data          0x00000000        0x0 build/bsp_led.o
 .bss           0x00000000        0x0 build/bsp_led.o
 .text.BSP_LED_Init
                0x00000000       0x48 build/bsp_led.o
 .text.BSP_LED_On
                0x00000000       0x48 build/bsp_led.o
 .text.BSP_LED_Off
                0x00000000       0x48 build/bsp_led.o
 .text.BSP_LED_Toggle
                0x00000000       0x40 build/bsp_led.o
 .debug_info    0x00000000      0x8d7 build/bsp_led.o
 .debug_abbrev  0x00000000      0x175 build/bsp_led.o
 .debug_loc     0x00000000      0x1dc build/bsp_led.o
 .debug_aranges
                0x00000000       0x38 build/bsp_led.o
 .debug_ranges  0x00000000       0x28 build/bsp_led.o
 .debug_line    0x00000000      0x1c7 build/bsp_led.o
 .debug_str     0x00000000      0x50a build/bsp_led.o
 .comment       0x00000000       0x6f build/bsp_led.o
 .debug_frame   0x00000000       0x74 build/bsp_led.o
 .ARM.attributes
                0x00000000       0x37 build/bsp_led.o
 .text          0x00000000        0x0 build/bsp_os.o
 .data          0x00000000        0x0 build/bsp_os.o
 .bss           0x00000000        0x0 build/bsp_os.o
 .text.BSP_OS_TickEnable
                0x00000000       0x10 build/bsp_os.o
 .text.BSP_OS_TickDisable
                0x00000000       0x10 build/bsp_os.o
 .text.BSP_OS_TickInit
                0x00000000       0x24 build/bsp_os.o
 .text.HAL_InitTick
                0x00000000        0x4 build/bsp_os.o
 .debug_info    0x00000000      0x261 build/bsp_os.o
 .debug_abbrev  0x00000000      0x146 build/bsp_os.o
 .debug_loc     0x00000000       0x89 build/bsp_os.o
 .debug_aranges
                0x00000000       0x38 build/bsp_os.o
 .debug_ranges  0x00000000       0x28 build/bsp_os.o
 .debug_line    0x00000000      0x1d0 build/bsp_os.o
 .debug_str     0x00000000      0x2f1 build/bsp_os.o
 .comment       0x00000000       0x6f build/bsp_os.o
 .debug_frame   0x00000000       0x5c build/bsp_os.o
 .ARM.attributes
                0x00000000       0x37 build/bsp_os.o
 .text          0x00000000        0x0 build/os_app_hooks.o
 .data          0x00000000        0x0 build/os_app_hooks.o
 .bss           0x00000000        0x0 build/os_app_hooks.o
 .text.App_OS_IdleTaskHook
                0x00000000        0x4 build/os_app_hooks.o
 .text.App_OS_StatTaskHook
                0x00000000        0x4 build/os_app_hooks.o
 .text.App_OS_TaskCreateHook
                0x00000000        0x4 build/os_app_hooks.o
 .text.App_OS_TaskDelHook
                0x00000000        0x4 build/os_app_hooks.o
 .text.App_OS_TaskReturnHook
                0x00000000        0x4 build/os_app_hooks.o
 .text.App_OS_TaskSwHook
                0x00000000        0x4 build/os_app_hooks.o
 .text.App_OS_TimeTickHook
                0x00000000        0x4 build/os_app_hooks.o
 .text.App_OS_SetAllHooks
                0x00000000       0x70 build/os_app_hooks.o
 .text.App_OS_ClrAllHooks
                0x00000000       0x48 build/os_app_hooks.o
 .debug_info    0x00000000      0x823 build/os_app_hooks.o
 .debug_abbrev  0x00000000      0x15c build/os_app_hooks.o
 .debug_loc     0x00000000       0x7e build/os_app_hooks.o
 .debug_aranges
                0x00000000       0x60 build/os_app_hooks.o
 .debug_ranges  0x00000000       0x50 build/os_app_hooks.o
 .debug_line    0x00000000      0x151 build/os_app_hooks.o
 .debug_str     0x00000000      0x6d5 build/os_app_hooks.o
 .comment       0x00000000       0x6f build/os_app_hooks.o
 .debug_frame   0x00000000       0xb0 build/os_app_hooks.o
 .ARM.attributes
                0x00000000       0x37 build/os_app_hooks.o
 .text          0x00000000        0x0 build/cpu_core.o
 .data          0x00000000        0x0 build/cpu_core.o
 .bss           0x00000000        0x0 build/cpu_core.o
 .text.CPU_TS_Init
                0x00000000       0x14 build/cpu_core.o
 .text.CPU_Init
                0x00000000        0x8 build/cpu_core.o
 .text.CPU_SW_Exception
                0x00000000        0x4 build/cpu_core.o
 .text.CPU_TS_Get32
                0x00000000        0x8 build/cpu_core.o
 .text.CPU_TS_Update
                0x00000000        0x4 build/cpu_core.o
 .text.CPU_TS_TmrFreqGet
                0x00000000       0x20 build/cpu_core.o
 .text.CPU_TS_TmrFreqSet
                0x00000000        0xc build/cpu_core.o
 .text.CPU_CntLeadZeros08
                0x00000000        0xc build/cpu_core.o
 .text.CPU_CntLeadZeros16
                0x00000000        0xc build/cpu_core.o
 .text.CPU_CntLeadZeros32
                0x00000000        0x8 build/cpu_core.o
 .text.CPU_CntLeadZeros64
                0x00000000       0xa0 build/cpu_core.o
 .text.CPU_CntTrailZeros08
                0x00000000       0x10 build/cpu_core.o
 .text.CPU_CntTrailZeros16
                0x00000000       0x10 build/cpu_core.o
 .text.CPU_CntTrailZeros32
                0x00000000       0x10 build/cpu_core.o
 .text.CPU_CntTrailZeros64
                0x00000000       0x20 build/cpu_core.o
 .text.CPU_PopCnt32
                0x00000000       0x2c build/cpu_core.o
 .text.CPU_StatReset
                0x00000000        0x4 build/cpu_core.o
 .rodata.CPU_CntLeadZerosTbl
                0x00000000      0x100 build/cpu_core.o
 .rodata.CPU_EndiannessTest
                0x00000000        0x4 build/cpu_core.o
 .debug_info    0x00000000      0x58e build/cpu_core.o
 .debug_abbrev  0x00000000      0x210 build/cpu_core.o
 .debug_loc     0x00000000      0x6a9 build/cpu_core.o
 .debug_aranges
                0x00000000       0xa0 build/cpu_core.o
 .debug_ranges  0x00000000       0x90 build/cpu_core.o
 .debug_line    0x00000000      0x20e build/cpu_core.o
 .debug_str     0x00000000      0x3fd build/cpu_core.o
 .comment       0x00000000       0x6f build/cpu_core.o
 .debug_frame   0x00000000      0x184 build/cpu_core.o
 .ARM.attributes
                0x00000000       0x37 build/cpu_core.o
 COMMON         0x00000000        0x4 build/cpu_core.o
 .text          0x00000000        0x0 build/cpu_c.o
 .data          0x00000000        0x0 build/cpu_c.o
 .bss           0x00000000        0x0 build/cpu_c.o
 .text.CPU_BitBandClr
                0x00000000       0x34 build/cpu_c.o
 .text.CPU_BitBandSet
                0x00000000       0x34 build/cpu_c.o
 .text.CPU_IntSrcDis
                0x00000000       0xcc build/cpu_c.o
 .text.CPU_IntSrcEn
                0x00000000       0xcc build/cpu_c.o
 .text.CPU_IntSrcPendClr
                0x00000000       0x64 build/cpu_c.o
 .text.CPU_IntSrcPrioSet
                0x00000000      0x130 build/cpu_c.o
 .text.CPU_IntSrcPrioGet
                0x00000000      0x118 build/cpu_c.o
 .debug_info    0x00000000      0x5ce build/cpu_c.o
 .debug_abbrev  0x00000000      0x15b build/cpu_c.o
 .debug_loc     0x00000000      0xb18 build/cpu_c.o
 .debug_aranges
                0x00000000       0x50 build/cpu_c.o
 .debug_ranges  0x00000000       0x40 build/cpu_c.o
 .debug_line    0x00000000      0x18d build/cpu_c.o
 .debug_str     0x00000000      0x288 build/cpu_c.o
 .comment       0x00000000       0x6f build/cpu_c.o
 .debug_frame   0x00000000       0xc4 build/cpu_c.o
 .ARM.attributes
                0x00000000       0x37 build/cpu_c.o
 .text          0x00000000        0x0 build/lib_ascii.o
 .data          0x00000000        0x0 build/lib_ascii.o
 .bss           0x00000000        0x0 build/lib_ascii.o
 .text.ASCII_IsAlpha
                0x00000000       0x1c build/lib_ascii.o
 .text.ASCII_IsAlphaNum
                0x00000000       0x28 build/lib_ascii.o
 .text.ASCII_IsLower
                0x00000000       0x10 build/lib_ascii.o
 .text.ASCII_IsUpper
                0x00000000       0x10 build/lib_ascii.o
 .text.ASCII_IsDig
                0x00000000       0x10 build/lib_ascii.o
 .text.ASCII_IsDigOct
                0x00000000       0x10 build/lib_ascii.o
 .text.ASCII_IsDigHex
                0x00000000       0x28 build/lib_ascii.o
 .text.ASCII_IsBlank
                0x00000000       0x10 build/lib_ascii.o
 .text.ASCII_IsSpace
                0x00000000       0x34 build/lib_ascii.o
 .text.ASCII_IsPrint
                0x00000000       0x10 build/lib_ascii.o
 .text.ASCII_IsGraph
                0x00000000       0x10 build/lib_ascii.o
 .text.ASCII_IsPunct
                0x00000000       0x38 build/lib_ascii.o
 .text.ASCII_IsCtrl
                0x00000000       0x10 build/lib_ascii.o
 .text.ASCII_ToLower
                0x00000000       0x10 build/lib_ascii.o
 .text.ASCII_ToUpper
                0x00000000       0x10 build/lib_ascii.o
 .text.ASCII_Cmp
                0x00000000       0x1c build/lib_ascii.o
 .debug_info    0x00000000      0x480 build/lib_ascii.o
 .debug_abbrev  0x00000000      0x107 build/lib_ascii.o
 .debug_loc     0x00000000      0x350 build/lib_ascii.o
 .debug_aranges
                0x00000000       0x98 build/lib_ascii.o
 .debug_ranges  0x00000000       0x88 build/lib_ascii.o
 .debug_line    0x00000000      0x1c5 build/lib_ascii.o
 .debug_str     0x00000000      0x2c2 build/lib_ascii.o
 .comment       0x00000000       0x6f build/lib_ascii.o
 .debug_frame   0x00000000      0x11c build/lib_ascii.o
 .ARM.attributes
                0x00000000       0x37 build/lib_ascii.o
 .text          0x00000000        0x0 build/lib_math.o
 .data          0x00000000        0x0 build/lib_math.o
 .bss           0x00000000        0x0 build/lib_math.o
 .text.Math_RandSetSeed
                0x00000000       0x18 build/lib_math.o
 .text.Math_Init
                0x00000000        0xc build/lib_math.o
 .text.Math_RandSeed
                0x00000000       0x14 build/lib_math.o
 .text.Math_Rand
                0x00000000       0x24 build/lib_math.o
 .debug_info    0x00000000      0x1e9 build/lib_math.o
 .debug_abbrev  0x00000000      0x119 build/lib_math.o
 .debug_loc     0x00000000      0x15c build/lib_math.o
 .debug_aranges
                0x00000000       0x38 build/lib_math.o
 .debug_ranges  0x00000000       0x28 build/lib_math.o
 .debug_line    0x00000000       0xbc build/lib_math.o
 .debug_str     0x00000000      0x1f1 build/lib_math.o
 .comment       0x00000000       0x6f build/lib_math.o
 .debug_frame   0x00000000       0x6c build/lib_math.o
 .ARM.attributes
                0x00000000       0x37 build/lib_math.o
 COMMON         0x00000000        0x4 build/lib_math.o
 .text          0x00000000        0x0 build/lib_mem.o
 .data          0x00000000        0x0 build/lib_mem.o
 .bss           0x00000000        0x0 build/lib_mem.o
 .text.Mem_SegCreateCritical
                0x00000000       0x1c build/lib_mem.o
 .text.Mem_SegAllocExtCritical
                0x00000000       0x58 build/lib_mem.o
 .text.Mem_SegAllocInternal
                0x00000000       0x4c build/lib_mem.o
 .text.Mem_DynPoolCreateInternal
                0x00000000       0xb8 build/lib_mem.o
 .text.Mem_Init
                0x00000000        0xc build/lib_mem.o
 .text.Mem_Set  0x00000000       0x50 build/lib_mem.o
 .text.Mem_Clr  0x00000000        0xc build/lib_mem.o
 .text.Mem_Copy
                0x00000000       0x64 build/lib_mem.o
 .text.Mem_Move
                0x00000000       0x80 build/lib_mem.o
 .text.Mem_Cmp  0x00000000       0xac build/lib_mem.o
 .text.Mem_SegCreate
                0x00000000       0x38 build/lib_mem.o
 .text.Mem_SegClr
                0x00000000       0x1c build/lib_mem.o
 .text.Mem_SegRemSizeGet
                0x00000000       0x64 build/lib_mem.o
 .text.Mem_SegAlloc
                0x00000000       0x24 build/lib_mem.o
 .text.Mem_SegAllocExt
                0x00000000       0x28 build/lib_mem.o
 .text.Mem_SegAllocHW
                0x00000000       0x28 build/lib_mem.o
 .text.Mem_DynPoolCreate
                0x00000000       0x2c build/lib_mem.o
 .text.Mem_DynPoolCreateHW
                0x00000000       0x2c build/lib_mem.o
 .text.Mem_DynPoolBlkGet
                0x00000000       0x70 build/lib_mem.o
 .text.Mem_DynPoolBlkFree
                0x00000000       0x40 build/lib_mem.o
 .text.Mem_DynPoolBlkNbrAvailGet
                0x00000000       0x2c build/lib_mem.o
 .debug_info    0x00000000     0x11f5 build/lib_mem.o
 .debug_abbrev  0x00000000      0x1ee build/lib_mem.o
 .debug_loc     0x00000000     0x1a1e build/lib_mem.o
 .debug_aranges
                0x00000000       0xc0 build/lib_mem.o
 .debug_ranges  0x00000000       0xb0 build/lib_mem.o
 .debug_line    0x00000000      0x398 build/lib_mem.o
 .debug_str     0x00000000      0x8e5 build/lib_mem.o
 .comment       0x00000000       0x6f build/lib_mem.o
 .debug_frame   0x00000000      0x2a0 build/lib_mem.o
 .ARM.attributes
                0x00000000       0x37 build/lib_mem.o
 COMMON         0x00000000        0x4 build/lib_mem.o
 .text          0x00000000        0x0 build/lib_str.o
 .data          0x00000000        0x0 build/lib_str.o
 .bss           0x00000000        0x0 build/lib_str.o
 .text.Str_FmtNbr_Int32
                0x00000000      0x1c8 build/lib_str.o
 .text.Str_ParseNbr_Int32
                0x00000000      0x1b4 build/lib_str.o
 .text.Str_Len_N
                0x00000000       0x18 build/lib_str.o
 .text.Str_Len  0x00000000        0xc build/lib_str.o
 .text.Str_Copy_N
                0x00000000       0x4c build/lib_str.o
 .text.Str_Copy
                0x00000000        0xc build/lib_str.o
 .text.Str_Cat_N
                0x00000000       0x5c build/lib_str.o
 .text.Str_Cat  0x00000000        0xc build/lib_str.o
 .text.Str_Cmp_N
                0x00000000       0x70 build/lib_str.o
 .text.Str_Cmp  0x00000000        0xc build/lib_str.o
 .text.Str_CmpIgnoreCase_N
                0x00000000       0xc8 build/lib_str.o
 .text.Str_CmpIgnoreCase
                0x00000000        0xc build/lib_str.o
 .text.Str_Char_N
                0x00000000       0x48 build/lib_str.o
 .text.Str_Char
                0x00000000       0x10 build/lib_str.o
 .text.Str_Char_Last_N
                0x00000000       0x38 build/lib_str.o
 .text.Str_Char_Last
                0x00000000       0x10 build/lib_str.o
 .text.Str_Char_Replace_N
                0x00000000       0x38 build/lib_str.o
 .text.Str_Char_Replace
                0x00000000        0xc build/lib_str.o
 .text.Str_Str_N
                0x00000000       0xa8 build/lib_str.o
 .text.Str_Str  0x00000000        0xc build/lib_str.o
 .text.Str_FmtNbr_Int32U
                0x00000000       0x20 build/lib_str.o
 .text.Str_FmtNbr_Int32S
                0x00000000       0x2c build/lib_str.o
 .text.Str_ParseNbr_Int32U
                0x00000000       0x14 build/lib_str.o
 .text.Str_ParseNbr_Int32S
                0x00000000       0x34 build/lib_str.o
 .rodata.Str_MultOvfThTbl_Int32U
                0x00000000       0x94 build/lib_str.o
 .debug_info    0x00000000     0x114d build/lib_str.o
 .debug_abbrev  0x00000000      0x1bc build/lib_str.o
 .debug_loc     0x00000000     0x209e build/lib_str.o
 .debug_aranges
                0x00000000       0xd8 build/lib_str.o
 .debug_ranges  0x00000000       0xc8 build/lib_str.o
 .debug_line    0x00000000      0x4d4 build/lib_str.o
 .debug_str     0x00000000      0x6ad build/lib_str.o
 .comment       0x00000000       0x6f build/lib_str.o
 .debug_frame   0x00000000      0x364 build/lib_str.o
 .ARM.attributes
                0x00000000       0x37 build/lib_str.o
 .text          0x00000000        0x0 build/os_cpu_c.o
 .data          0x00000000        0x0 build/os_cpu_c.o
 .bss           0x00000000        0x0 build/os_cpu_c.o
 .text.OS_CPU_SysTickInit
                0x00000000       0x30 build/os_cpu_c.o
 .text.OS_CPU_SysTickInitFreq
                0x00000000       0x14 build/os_cpu_c.o
 .text          0x00000000        0x0 build/os_cfg_app.o
 .data          0x00000000        0x0 build/os_cfg_app.o
 .bss           0x00000000        0x0 build/os_cfg_app.o
 .rodata.OSCfg_TickTaskStkSizeRAM
                0x00000000        0x4 build/os_cfg_app.o
 .rodata.OSCfg_TmrTaskStkSizeRAM
                0x00000000        0x4 build/os_cfg_app.o
 .rodata.OSCfg_DataSizeRAM
                0x00000000        0x4 build/os_cfg_app.o
 .rodata.OSCfg_IdleTaskStkSizeRAM
                0x00000000        0x4 build/os_cfg_app.o
 .rodata.OSCfg_MsgPoolSizeRAM
                0x00000000        0x4 build/os_cfg_app.o
 .rodata.OSCfg_StatTaskStkSizeRAM
                0x00000000        0x4 build/os_cfg_app.o
 .rodata.OSCfg_ISRStkSizeRAM
                0x00000000        0x4 build/os_cfg_app.o
 .text          0x00000000        0x0 build/os_core.o
 .data          0x00000000        0x0 build/os_core.o
 .bss           0x00000000        0x0 build/os_core.o
 .text.OSSchedRoundRobinCfg
                0x00000000       0x50 build/os_core.o
 .text.OSVersion
                0x00000000        0xc build/os_core.o
 .text.OS_PendAbort
                0x00000000       0x78 build/os_core.o
 .text.OSSchedRoundRobinYield
                0x00000000       0x98 build/os_core.o
 .text          0x00000000        0x0 build/os_dbg.o
 .data          0x00000000        0x0 build/os_dbg.o
 .bss           0x00000000        0x0 build/os_dbg.o
 .rodata.OSDbg_DbgEn
                0x00000000        0x1 build/os_dbg.o
 .debug_info    0x00000000       0x94 build/os_dbg.o
 .debug_abbrev  0x00000000       0x4b build/os_dbg.o
 .debug_aranges
                0x00000000       0x18 build/os_dbg.o
 .debug_line    0x00000000       0x63 build/os_dbg.o
 .debug_str     0x00000000      0x183 build/os_dbg.o
 .comment       0x00000000       0x6f build/os_dbg.o
 .ARM.attributes
                0x00000000       0x37 build/os_dbg.o
 .text          0x00000000        0x0 build/os_flag.o
 .data          0x00000000        0x0 build/os_flag.o
 .bss           0x00000000        0x0 build/os_flag.o
 .text.OSFlagCreate
                0x00000000       0x48 build/os_flag.o
 .text.OSFlagPendAbort
                0x00000000       0xd0 build/os_flag.o
 .text.OSFlagPendGetFlagsRdy
                0x00000000       0x48 build/os_flag.o
 .text.OS_FlagBlock
                0x00000000       0x20 build/os_flag.o
 .text.OSFlagPend
                0x00000000      0x374 build/os_flag.o
 .text.OS_FlagClr
                0x00000000       0x18 build/os_flag.o
 .text.OSFlagDel
                0x00000000       0xc0 build/os_flag.o
 .text.OS_FlagTaskRdy
                0x00000000       0x48 build/os_flag.o
 .text.OSFlagPost
                0x00000000      0x140 build/os_flag.o
 .debug_info    0x00000000     0x14a7 build/os_flag.o
 .debug_abbrev  0x00000000      0x1f9 build/os_flag.o
 .debug_loc     0x00000000      0xf88 build/os_flag.o
 .debug_aranges
                0x00000000       0x60 build/os_flag.o
 .debug_ranges  0x00000000       0x50 build/os_flag.o
 .debug_line    0x00000000      0x284 build/os_flag.o
 .debug_str     0x00000000     0x13ff build/os_flag.o
 .comment       0x00000000       0x6f build/os_flag.o
 .debug_frame   0x00000000      0x124 build/os_flag.o
 .ARM.attributes
                0x00000000       0x37 build/os_flag.o
 .text          0x00000000        0x0 build/os_mem.o
 .data          0x00000000        0x0 build/os_mem.o
 .bss           0x00000000        0x0 build/os_mem.o
 .text.OSMemCreate
                0x00000000       0xc0 build/os_mem.o
 .text.OSMemGet
                0x00000000       0x54 build/os_mem.o
 .text.OSMemPut
                0x00000000       0x60 build/os_mem.o
 .text          0x00000000        0x0 build/os_mon.o
 .data          0x00000000        0x0 build/os_mon.o
 .bss           0x00000000        0x0 build/os_mon.o
 .debug_info    0x00000000       0x72 build/os_mon.o
 .debug_abbrev  0x00000000       0x26 build/os_mon.o
 .debug_aranges
                0x00000000       0x18 build/os_mon.o
 .debug_line    0x00000000       0x1d build/os_mon.o
 .debug_str     0x00000000      0x16c build/os_mon.o
 .comment       0x00000000       0x6f build/os_mon.o
 .ARM.attributes
                0x00000000       0x37 build/os_mon.o
 .text          0x00000000        0x0 build/os_msg.o
 .data          0x00000000        0x0 build/os_msg.o
 .bss           0x00000000        0x0 build/os_msg.o
 .text.OS_MsgQGet
                0x00000000       0x50 build/os_msg.o
 .text.OS_MsgQPut
                0x00000000       0x78 build/os_msg.o
 .text          0x00000000        0x0 build/os_mutex.o
 .data          0x00000000        0x0 build/os_mutex.o
 .bss           0x00000000        0x0 build/os_mutex.o
 .text.OS_MutexClr
                0x00000000       0x1c build/os_mutex.o
 .text.OSMutexDel
                0x00000000      0x10c build/os_mutex.o
 .text.OSMutexPendAbort
                0x00000000      0x108 build/os_mutex.o
 .text          0x00000000        0x0 build/os_prio.o
 .data          0x00000000        0x0 build/os_prio.o
 .bss           0x00000000        0x0 build/os_prio.o
 .text          0x00000000        0x0 build/os_q.o
 .data          0x00000000        0x0 build/os_q.o
 .bss           0x00000000        0x0 build/os_q.o
 .text.OSQCreate
                0x00000000       0x58 build/os_q.o
 .text.OSQFlush
                0x00000000       0x70 build/os_q.o
 .text.OSQPend  0x00000000      0x15c build/os_q.o
 .text.OSQPendAbort
                0x00000000       0xd0 build/os_q.o
 .text.OSQPost  0x00000000       0xf0 build/os_q.o
 .text.OS_QClr  0x00000000       0x28 build/os_q.o
 .text.OSQDel   0x00000000       0xc0 build/os_q.o
 .debug_info    0x00000000     0x1293 build/os_q.o
 .debug_abbrev  0x00000000      0x1f9 build/os_q.o
 .debug_loc     0x00000000      0xb1d build/os_q.o
 .debug_aranges
                0x00000000       0x50 build/os_q.o
 .debug_ranges  0x00000000       0x40 build/os_q.o
 .debug_line    0x00000000      0x1f3 build/os_q.o
 .debug_str     0x00000000     0x13ad build/os_q.o
 .comment       0x00000000       0x6f build/os_q.o
 .debug_frame   0x00000000       0xf4 build/os_q.o
 .ARM.attributes
                0x00000000       0x37 build/os_q.o
 .text          0x00000000        0x0 build/os_sem.o
 .data          0x00000000        0x0 build/os_sem.o
 .bss           0x00000000        0x0 build/os_sem.o
 .text.OSSemCreate
                0x00000000       0x48 build/os_sem.o
 .text.OSSemPend
                0x00000000      0x128 build/os_sem.o
 .text.OSSemPendAbort
                0x00000000       0xd0 build/os_sem.o
 .text.OSSemPost
                0x00000000       0xcc build/os_sem.o
 .text.OSSemSet
                0x00000000       0x5c build/os_sem.o
 .text.OS_SemClr
                0x00000000       0x18 build/os_sem.o
 .text.OSSemDel
                0x00000000       0xc0 build/os_sem.o
 .debug_info    0x00000000     0x117b build/os_sem.o
 .debug_abbrev  0x00000000      0x1f9 build/os_sem.o
 .debug_loc     0x00000000      0x904 build/os_sem.o
 .debug_aranges
                0x00000000       0x50 build/os_sem.o
 .debug_ranges  0x00000000       0x40 build/os_sem.o
 .debug_line    0x00000000      0x1ee build/os_sem.o
 .debug_str     0x00000000     0x135f build/os_sem.o
 .comment       0x00000000       0x6f build/os_sem.o
 .debug_frame   0x00000000       0xec build/os_sem.o
 .ARM.attributes
                0x00000000       0x37 build/os_sem.o
 .text          0x00000000        0x0 build/os_stat.o
 .data          0x00000000        0x0 build/os_stat.o
 .bss           0x00000000        0x0 build/os_stat.o
 .text.OSStatTaskCPUUsageInit
                0x00000000       0xcc build/os_stat.o
 .text          0x00000000        0x0 build/os_task.o
 .data          0x00000000        0x0 build/os_task.o
 .bss           0x00000000        0x0 build/os_task.o
 .text.OSTaskQFlush
                0x00000000       0x60 build/os_task.o
 .text.OSTaskQPend
                0x00000000      0x120 build/os_task.o
 .text.OSTaskQPendAbort
                0x00000000       0xa4 build/os_task.o
 .text.OSTaskQPost
                0x00000000       0xe0 build/os_task.o
 .text.OSTaskRegGet
                0x00000000       0x38 build/os_task.o
 .text.OSTaskRegGetID
                0x00000000       0x34 build/os_task.o
 .text.OSTaskRegSet
                0x00000000       0x34 build/os_task.o
 .text.OSTaskResume
                0x00000000      0x100 build/os_task.o
 .text.OSTaskSemPendAbort
                0x00000000       0xa8 build/os_task.o
 .text.OSTaskSemSet
                0x00000000       0x5c build/os_task.o
 .text.OSTaskStkChk
                0x00000000       0x94 build/os_task.o
 .text.OSTaskSuspend
                0x00000000      0x120 build/os_task.o
 .text.OSTaskTimeQuantaSet
                0x00000000       0x4c build/os_task.o
 .text.OSTaskChangePrio
                0x00000000       0x9c build/os_task.o
 .text          0x00000000        0x0 build/os_time.o
 .data          0x00000000        0x0 build/os_time.o
 .bss           0x00000000        0x0 build/os_time.o
 .text.OSTimeDlyHMSM
                0x00000000      0x174 build/os_time.o
 .text.OSTimeDlyResume
                0x00000000       0xa4 build/os_time.o
 .text.OSTimeGet
                0x00000000       0x1c build/os_time.o
 .text.OSTimeSet
                0x00000000       0x1c build/os_time.o
 .text          0x00000000        0x0 build/os_tick.o
 .data          0x00000000        0x0 build/os_tick.o
 .bss           0x00000000        0x0 build/os_tick.o
 .text          0x00000000        0x0 build/os_tmr.o
 .data          0x00000000        0x0 build/os_tmr.o
 .bss           0x00000000        0x0 build/os_tmr.o
 .text.OSTmrCreate
                0x00000000       0xac build/os_tmr.o
 .text.OSTmrRemainGet
                0x00000000       0xa4 build/os_tmr.o
 .text.OSTmrSet
                0x00000000       0xa8 build/os_tmr.o
 .text.OSTmrStart
                0x00000000       0xcc build/os_tmr.o
 .text.OSTmrStateGet
                0x00000000       0x70 build/os_tmr.o
 .text.OS_TmrClr
                0x00000000       0x20 build/os_tmr.o
 .text.OSTmrDel
                0x00000000       0xa0 build/os_tmr.o
 .text.OSTmrStop
                0x00000000       0xf4 build/os_tmr.o
 .text          0x00000000        0x0 build/os_var.o
 .data          0x00000000        0x0 build/os_var.o
 .bss           0x00000000        0x0 build/os_var.o
 .text          0x00000000        0x0 build/app.o
 .data          0x00000000        0x0 build/app.o
 .bss           0x00000000        0x0 build/app.o
 .ARM.extab.text._Z41__static_initialization_and_destruction_0ii
                0x00000000        0x0 build/app.o
 .ARM.extab.text.Error_Handler
                0x00000000        0x0 build/app.o
 .ARM.extab.text._ZL21my_SystemClock_Configv
                0x00000000        0x0 build/app.o
 .ARM.extab.text.main
                0x00000000        0x0 build/app.o
 .ARM.extab.text._GLOBAL__sub_I_Yuki
                0x00000000        0x0 build/app.o
 .text          0x00000000        0x0 build/app_task.o
 .data          0x00000000        0x0 build/app_task.o
 .bss           0x00000000        0x0 build/app_task.o
 .ARM.extab.text._Z7My_TaskPv
                0x00000000        0x0 build/app_task.o
 .ARM.extab.text._Z10Start_TaskPv
                0x00000000        0x0 build/app_task.o
 .text          0x00000000        0x0 build/bsp_uart.o
 .data          0x00000000        0x0 build/bsp_uart.o
 .bss           0x00000000        0x0 build/bsp_uart.o
 .ARM.extab.text._ZN11User_Uart_TC2Ev
                0x00000000        0x0 build/bsp_uart.o
 .ARM.extab.text._ZN11User_Uart_TD2Ev
                0x00000000        0x0 build/bsp_uart.o
 .ARM.extab.text._ZN11User_Uart_T4initEv
                0x00000000        0x0 build/bsp_uart.o
 .ARM.extab.text._ZN11User_Uart_T12m_send_NcharEPhm
                0x00000000        0x0 build/bsp_uart.o
 .ARM.extab.text._ZN11User_Uart_T11send_stringEPh
                0x00000000        0x0 build/bsp_uart.o
 .text._ZN11User_Uart_T10show_rxbufEv
                0x00000000        0xc build/bsp_uart.o
 .ARM.extab.text._ZN11User_Uart_T10show_rxbufEv
                0x00000000        0xc build/bsp_uart.o
 .ARM.exidx.text._ZN11User_Uart_T10show_rxbufEv
                0x00000000        0x8 build/bsp_uart.o
 .text          0x00000000       0x14 build/startup_stm32h750xx.o
 .data          0x00000000        0x0 build/startup_stm32h750xx.o
 .bss           0x00000000        0x0 build/startup_stm32h750xx.o
 .data          0x00000000        0x0 build/cpu_a.o
 .bss           0x00000000        0x0 build/cpu_a.o
 .data          0x00000000        0x0 build/os_cpu_a.o
 .bss           0x00000000        0x0 build/os_cpu_a.o
 .text          0x00000000        0x0 i:/mcu/gnu_tools_arm/bin/../lib/gcc/arm-none-eabi/5.4.1/../../../../arm-none-eabi/lib/armv7e-m/fpu/fpv5-d16\libc.a(lib_a-aeabi_atexit.o)
 .data          0x00000000        0x0 i:/mcu/gnu_tools_arm/bin/../lib/gcc/arm-none-eabi/5.4.1/../../../../arm-none-eabi/lib/armv7e-m/fpu/fpv5-d16\libc.a(lib_a-aeabi_atexit.o)
 .bss           0x00000000        0x0 i:/mcu/gnu_tools_arm/bin/../lib/gcc/arm-none-eabi/5.4.1/../../../../arm-none-eabi/lib/armv7e-m/fpu/fpv5-d16\libc.a(lib_a-aeabi_atexit.o)
 .text          0x00000000        0x0 i:/mcu/gnu_tools_arm/bin/../lib/gcc/arm-none-eabi/5.4.1/../../../../arm-none-eabi/lib/armv7e-m/fpu/fpv5-d16\libc.a(lib_a-cxa_atexit.o)
 .data          0x00000000        0x0 i:/mcu/gnu_tools_arm/bin/../lib/gcc/arm-none-eabi/5.4.1/../../../../arm-none-eabi/lib/armv7e-m/fpu/fpv5-d16\libc.a(lib_a-cxa_atexit.o)
 .bss           0x00000000        0x0 i:/mcu/gnu_tools_arm/bin/../lib/gcc/arm-none-eabi/5.4.1/../../../../arm-none-eabi/lib/armv7e-m/fpu/fpv5-d16\libc.a(lib_a-cxa_atexit.o)
 .text          0x00000000        0x0 i:/mcu/gnu_tools_arm/bin/../lib/gcc/arm-none-eabi/5.4.1/../../../../arm-none-eabi/lib/armv7e-m/fpu/fpv5-d16\libc.a(lib_a-exit.o)
 .data          0x00000000        0x0 i:/mcu/gnu_tools_arm/bin/../lib/gcc/arm-none-eabi/5.4.1/../../../../arm-none-eabi/lib/armv7e-m/fpu/fpv5-d16\libc.a(lib_a-exit.o)
 .bss           0x00000000        0x0 i:/mcu/gnu_tools_arm/bin/../lib/gcc/arm-none-eabi/5.4.1/../../../../arm-none-eabi/lib/armv7e-m/fpu/fpv5-d16\libc.a(lib_a-exit.o)
 .text.exit     0x00000000       0x20 i:/mcu/gnu_tools_arm/bin/../lib/gcc/arm-none-eabi/5.4.1/../../../../arm-none-eabi/lib/armv7e-m/fpu/fpv5-d16\libc.a(lib_a-exit.o)
 .debug_frame   0x00000000       0x28 i:/mcu/gnu_tools_arm/bin/../lib/gcc/arm-none-eabi/5.4.1/../../../../arm-none-eabi/lib/armv7e-m/fpu/fpv5-d16\libc.a(lib_a-exit.o)
 .ARM.attributes
                0x00000000       0x32 i:/mcu/gnu_tools_arm/bin/../lib/gcc/arm-none-eabi/5.4.1/../../../../arm-none-eabi/lib/armv7e-m/fpu/fpv5-d16\libc.a(lib_a-exit.o)
 .text          0x00000000        0x0 i:/mcu/gnu_tools_arm/bin/../lib/gcc/arm-none-eabi/5.4.1/../../../../arm-none-eabi/lib/armv7e-m/fpu/fpv5-d16\libc.a(lib_a-impure.o)
 .data          0x00000000        0x0 i:/mcu/gnu_tools_arm/bin/../lib/gcc/arm-none-eabi/5.4.1/../../../../arm-none-eabi/lib/armv7e-m/fpu/fpv5-d16\libc.a(lib_a-impure.o)
 .bss           0x00000000        0x0 i:/mcu/gnu_tools_arm/bin/../lib/gcc/arm-none-eabi/5.4.1/../../../../arm-none-eabi/lib/armv7e-m/fpu/fpv5-d16\libc.a(lib_a-impure.o)
 .text          0x00000000        0x0 i:/mcu/gnu_tools_arm/bin/../lib/gcc/arm-none-eabi/5.4.1/../../../../arm-none-eabi/lib/armv7e-m/fpu/fpv5-d16\libc.a(lib_a-init.o)
 .data          0x00000000        0x0 i:/mcu/gnu_tools_arm/bin/../lib/gcc/arm-none-eabi/5.4.1/../../../../arm-none-eabi/lib/armv7e-m/fpu/fpv5-d16\libc.a(lib_a-init.o)
 .bss           0x00000000        0x0 i:/mcu/gnu_tools_arm/bin/../lib/gcc/arm-none-eabi/5.4.1/../../../../arm-none-eabi/lib/armv7e-m/fpu/fpv5-d16\libc.a(lib_a-init.o)
 .text          0x00000000        0x0 i:/mcu/gnu_tools_arm/bin/../lib/gcc/arm-none-eabi/5.4.1/../../../../arm-none-eabi/lib/armv7e-m/fpu/fpv5-d16\libc.a(lib_a-memset.o)
 .data          0x00000000        0x0 i:/mcu/gnu_tools_arm/bin/../lib/gcc/arm-none-eabi/5.4.1/../../../../arm-none-eabi/lib/armv7e-m/fpu/fpv5-d16\libc.a(lib_a-memset.o)
 .bss           0x00000000        0x0 i:/mcu/gnu_tools_arm/bin/../lib/gcc/arm-none-eabi/5.4.1/../../../../arm-none-eabi/lib/armv7e-m/fpu/fpv5-d16\libc.a(lib_a-memset.o)
 .text          0x00000000        0x0 i:/mcu/gnu_tools_arm/bin/../lib/gcc/arm-none-eabi/5.4.1/../../../../arm-none-eabi/lib/armv7e-m/fpu/fpv5-d16\libc.a(lib_a-sprintf.o)
 .data          0x00000000        0x0 i:/mcu/gnu_tools_arm/bin/../lib/gcc/arm-none-eabi/5.4.1/../../../../arm-none-eabi/lib/armv7e-m/fpu/fpv5-d16\libc.a(lib_a-sprintf.o)
 .bss           0x00000000        0x0 i:/mcu/gnu_tools_arm/bin/../lib/gcc/arm-none-eabi/5.4.1/../../../../arm-none-eabi/lib/armv7e-m/fpu/fpv5-d16\libc.a(lib_a-sprintf.o)
 .text._sprintf_r
                0x00000000       0x44 i:/mcu/gnu_tools_arm/bin/../lib/gcc/arm-none-eabi/5.4.1/../../../../arm-none-eabi/lib/armv7e-m/fpu/fpv5-d16\libc.a(lib_a-sprintf.o)
 .text          0x00000000        0x0 i:/mcu/gnu_tools_arm/bin/../lib/gcc/arm-none-eabi/5.4.1/../../../../arm-none-eabi/lib/armv7e-m/fpu/fpv5-d16\libc.a(lib_a-svfprintf.o)
 .data          0x00000000        0x0 i:/mcu/gnu_tools_arm/bin/../lib/gcc/arm-none-eabi/5.4.1/../../../../arm-none-eabi/lib/armv7e-m/fpu/fpv5-d16\libc.a(lib_a-svfprintf.o)
 .bss           0x00000000        0x0 i:/mcu/gnu_tools_arm/bin/../lib/gcc/arm-none-eabi/5.4.1/../../../../arm-none-eabi/lib/armv7e-m/fpu/fpv5-d16\libc.a(lib_a-svfprintf.o)
 .text          0x00000000        0x0 i:/mcu/gnu_tools_arm/bin/../lib/gcc/arm-none-eabi/5.4.1/../../../../arm-none-eabi/lib/armv7e-m/fpu/fpv5-d16\libc.a(lib_a-__atexit.o)
 .data          0x00000000        0x0 i:/mcu/gnu_tools_arm/bin/../lib/gcc/arm-none-eabi/5.4.1/../../../../arm-none-eabi/lib/armv7e-m/fpu/fpv5-d16\libc.a(lib_a-__atexit.o)
 .bss           0x00000000        0x0 i:/mcu/gnu_tools_arm/bin/../lib/gcc/arm-none-eabi/5.4.1/../../../../arm-none-eabi/lib/armv7e-m/fpu/fpv5-d16\libc.a(lib_a-__atexit.o)
 .text          0x00000000        0x0 i:/mcu/gnu_tools_arm/bin/../lib/gcc/arm-none-eabi/5.4.1/../../../../arm-none-eabi/lib/armv7e-m/fpu/fpv5-d16\libc.a(lib_a-__call_atexit.o)
 .data          0x00000000        0x0 i:/mcu/gnu_tools_arm/bin/../lib/gcc/arm-none-eabi/5.4.1/../../../../arm-none-eabi/lib/armv7e-m/fpu/fpv5-d16\libc.a(lib_a-__call_atexit.o)
 .bss           0x00000000        0x0 i:/mcu/gnu_tools_arm/bin/../lib/gcc/arm-none-eabi/5.4.1/../../../../arm-none-eabi/lib/armv7e-m/fpu/fpv5-d16\libc.a(lib_a-__call_atexit.o)
 .text.__call_exitprocs
                0x00000000       0xd8 i:/mcu/gnu_tools_arm/bin/../lib/gcc/arm-none-eabi/5.4.1/../../../../arm-none-eabi/lib/armv7e-m/fpu/fpv5-d16\libc.a(lib_a-__call_atexit.o)
 .text          0x00000000        0x0 i:/mcu/gnu_tools_arm/bin/../lib/gcc/arm-none-eabi/5.4.1/../../../../arm-none-eabi/lib/armv7e-m/fpu/fpv5-d16\libc.a(lib_a-atexit.o)
 .data          0x00000000        0x0 i:/mcu/gnu_tools_arm/bin/../lib/gcc/arm-none-eabi/5.4.1/../../../../arm-none-eabi/lib/armv7e-m/fpu/fpv5-d16\libc.a(lib_a-atexit.o)
 .bss           0x00000000        0x0 i:/mcu/gnu_tools_arm/bin/../lib/gcc/arm-none-eabi/5.4.1/../../../../arm-none-eabi/lib/armv7e-m/fpu/fpv5-d16\libc.a(lib_a-atexit.o)
 .text          0x00000000        0x0 i:/mcu/gnu_tools_arm/bin/../lib/gcc/arm-none-eabi/5.4.1/../../../../arm-none-eabi/lib/armv7e-m/fpu/fpv5-d16\libc.a(lib_a-dtoa.o)
 .data          0x00000000        0x0 i:/mcu/gnu_tools_arm/bin/../lib/gcc/arm-none-eabi/5.4.1/../../../../arm-none-eabi/lib/armv7e-m/fpu/fpv5-d16\libc.a(lib_a-dtoa.o)
 .bss           0x00000000        0x0 i:/mcu/gnu_tools_arm/bin/../lib/gcc/arm-none-eabi/5.4.1/../../../../arm-none-eabi/lib/armv7e-m/fpu/fpv5-d16\libc.a(lib_a-dtoa.o)
 .text          0x00000000        0x0 i:/mcu/gnu_tools_arm/bin/../lib/gcc/arm-none-eabi/5.4.1/../../../../arm-none-eabi/lib/armv7e-m/fpu/fpv5-d16\libc.a(lib_a-fini.o)
 .data          0x00000000        0x0 i:/mcu/gnu_tools_arm/bin/../lib/gcc/arm-none-eabi/5.4.1/../../../../arm-none-eabi/lib/armv7e-m/fpu/fpv5-d16\libc.a(lib_a-fini.o)
 .bss           0x00000000        0x0 i:/mcu/gnu_tools_arm/bin/../lib/gcc/arm-none-eabi/5.4.1/../../../../arm-none-eabi/lib/armv7e-m/fpu/fpv5-d16\libc.a(lib_a-fini.o)
 .text          0x00000000        0x0 i:/mcu/gnu_tools_arm/bin/../lib/gcc/arm-none-eabi/5.4.1/../../../../arm-none-eabi/lib/armv7e-m/fpu/fpv5-d16\libc.a(lib_a-localeconv.o)
 .data          0x00000000        0x0 i:/mcu/gnu_tools_arm/bin/../lib/gcc/arm-none-eabi/5.4.1/../../../../arm-none-eabi/lib/armv7e-m/fpu/fpv5-d16\libc.a(lib_a-localeconv.o)
 .bss           0x00000000        0x0 i:/mcu/gnu_tools_arm/bin/../lib/gcc/arm-none-eabi/5.4.1/../../../../arm-none-eabi/lib/armv7e-m/fpu/fpv5-d16\libc.a(lib_a-localeconv.o)
 .text.__localeconv_l
                0x00000000        0x4 i:/mcu/gnu_tools_arm/bin/../lib/gcc/arm-none-eabi/5.4.1/../../../../arm-none-eabi/lib/armv7e-m/fpu/fpv5-d16\libc.a(lib_a-localeconv.o)
 .text.localeconv
                0x00000000       0x1c i:/mcu/gnu_tools_arm/bin/../lib/gcc/arm-none-eabi/5.4.1/../../../../arm-none-eabi/lib/armv7e-m/fpu/fpv5-d16\libc.a(lib_a-localeconv.o)
 .text          0x00000000        0x0 i:/mcu/gnu_tools_arm/bin/../lib/gcc/arm-none-eabi/5.4.1/../../../../arm-none-eabi/lib/armv7e-m/fpu/fpv5-d16\libc.a(lib_a-mallocr.o)
 .data          0x00000000        0x0 i:/mcu/gnu_tools_arm/bin/../lib/gcc/arm-none-eabi/5.4.1/../../../../arm-none-eabi/lib/armv7e-m/fpu/fpv5-d16\libc.a(lib_a-mallocr.o)
 .bss           0x00000000        0x0 i:/mcu/gnu_tools_arm/bin/../lib/gcc/arm-none-eabi/5.4.1/../../../../arm-none-eabi/lib/armv7e-m/fpu/fpv5-d16\libc.a(lib_a-mallocr.o)
 .data          0x00000000        0x0 i:/mcu/gnu_tools_arm/bin/../lib/gcc/arm-none-eabi/5.4.1/../../../../arm-none-eabi/lib/armv7e-m/fpu/fpv5-d16\libc.a(lib_a-memchr.o)
 .bss           0x00000000        0x0 i:/mcu/gnu_tools_arm/bin/../lib/gcc/arm-none-eabi/5.4.1/../../../../arm-none-eabi/lib/armv7e-m/fpu/fpv5-d16\libc.a(lib_a-memchr.o)
 .data          0x00000000        0x0 i:/mcu/gnu_tools_arm/bin/../lib/gcc/arm-none-eabi/5.4.1/../../../../arm-none-eabi/lib/armv7e-m/fpu/fpv5-d16\libc.a(lib_a-memcpy.o)
 .bss           0x00000000        0x0 i:/mcu/gnu_tools_arm/bin/../lib/gcc/arm-none-eabi/5.4.1/../../../../arm-none-eabi/lib/armv7e-m/fpu/fpv5-d16\libc.a(lib_a-memcpy.o)
 .text          0x00000000        0x0 i:/mcu/gnu_tools_arm/bin/../lib/gcc/arm-none-eabi/5.4.1/../../../../arm-none-eabi/lib/armv7e-m/fpu/fpv5-d16\libc.a(lib_a-mlock.o)
 .data          0x00000000        0x0 i:/mcu/gnu_tools_arm/bin/../lib/gcc/arm-none-eabi/5.4.1/../../../../arm-none-eabi/lib/armv7e-m/fpu/fpv5-d16\libc.a(lib_a-mlock.o)
 .bss           0x00000000        0x0 i:/mcu/gnu_tools_arm/bin/../lib/gcc/arm-none-eabi/5.4.1/../../../../arm-none-eabi/lib/armv7e-m/fpu/fpv5-d16\libc.a(lib_a-mlock.o)
 .text          0x00000000        0x0 i:/mcu/gnu_tools_arm/bin/../lib/gcc/arm-none-eabi/5.4.1/../../../../arm-none-eabi/lib/armv7e-m/fpu/fpv5-d16\libc.a(lib_a-mprec.o)
 .data          0x00000000        0x0 i:/mcu/gnu_tools_arm/bin/../lib/gcc/arm-none-eabi/5.4.1/../../../../arm-none-eabi/lib/armv7e-m/fpu/fpv5-d16\libc.a(lib_a-mprec.o)
 .bss           0x00000000        0x0 i:/mcu/gnu_tools_arm/bin/../lib/gcc/arm-none-eabi/5.4.1/../../../../arm-none-eabi/lib/armv7e-m/fpu/fpv5-d16\libc.a(lib_a-mprec.o)
 .text.__s2b    0x00000000       0x98 i:/mcu/gnu_tools_arm/bin/../lib/gcc/arm-none-eabi/5.4.1/../../../../arm-none-eabi/lib/armv7e-m/fpu/fpv5-d16\libc.a(lib_a-mprec.o)
 .text.__ulp    0x00000000       0x54 i:/mcu/gnu_tools_arm/bin/../lib/gcc/arm-none-eabi/5.4.1/../../../../arm-none-eabi/lib/armv7e-m/fpu/fpv5-d16\libc.a(lib_a-mprec.o)
 .text.__b2d    0x00000000       0xd0 i:/mcu/gnu_tools_arm/bin/../lib/gcc/arm-none-eabi/5.4.1/../../../../arm-none-eabi/lib/armv7e-m/fpu/fpv5-d16\libc.a(lib_a-mprec.o)
 .text.__ratio  0x00000000       0x5c i:/mcu/gnu_tools_arm/bin/../lib/gcc/arm-none-eabi/5.4.1/../../../../arm-none-eabi/lib/armv7e-m/fpu/fpv5-d16\libc.a(lib_a-mprec.o)
 .text._mprec_log10
                0x00000000       0x28 i:/mcu/gnu_tools_arm/bin/../lib/gcc/arm-none-eabi/5.4.1/../../../../arm-none-eabi/lib/armv7e-m/fpu/fpv5-d16\libc.a(lib_a-mprec.o)
 .text.__copybits
                0x00000000       0x48 i:/mcu/gnu_tools_arm/bin/../lib/gcc/arm-none-eabi/5.4.1/../../../../arm-none-eabi/lib/armv7e-m/fpu/fpv5-d16\libc.a(lib_a-mprec.o)
 .text.__any_on
                0x00000000       0x60 i:/mcu/gnu_tools_arm/bin/../lib/gcc/arm-none-eabi/5.4.1/../../../../arm-none-eabi/lib/armv7e-m/fpu/fpv5-d16\libc.a(lib_a-mprec.o)
 .rodata.__mprec_tinytens
                0x00000000       0x28 i:/mcu/gnu_tools_arm/bin/../lib/gcc/arm-none-eabi/5.4.1/../../../../arm-none-eabi/lib/armv7e-m/fpu/fpv5-d16\libc.a(lib_a-mprec.o)
 .text          0x00000000        0x0 i:/mcu/gnu_tools_arm/bin/../lib/gcc/arm-none-eabi/5.4.1/../../../../arm-none-eabi/lib/armv7e-m/fpu/fpv5-d16\libc.a(lib_a-sbrkr.o)
 .data          0x00000000        0x0 i:/mcu/gnu_tools_arm/bin/../lib/gcc/arm-none-eabi/5.4.1/../../../../arm-none-eabi/lib/armv7e-m/fpu/fpv5-d16\libc.a(lib_a-sbrkr.o)
 .bss           0x00000000        0x0 i:/mcu/gnu_tools_arm/bin/../lib/gcc/arm-none-eabi/5.4.1/../../../../arm-none-eabi/lib/armv7e-m/fpu/fpv5-d16\libc.a(lib_a-sbrkr.o)
 .data          0x00000000        0x0 i:/mcu/gnu_tools_arm/bin/../lib/gcc/arm-none-eabi/5.4.1/../../../../arm-none-eabi/lib/armv7e-m/fpu/fpv5-d16\libc.a(lib_a-strlen.o)
 .bss           0x00000000        0x0 i:/mcu/gnu_tools_arm/bin/../lib/gcc/arm-none-eabi/5.4.1/../../../../arm-none-eabi/lib/armv7e-m/fpu/fpv5-d16\libc.a(lib_a-strlen.o)
 .text          0x00000000        0x0 i:/mcu/gnu_tools_arm/bin/../lib/gcc/arm-none-eabi/5.4.1/../../../../arm-none-eabi/lib/armv7e-m/fpu/fpv5-d16\libc.a(lib_a-svfiprintf.o)
 .data          0x00000000        0x0 i:/mcu/gnu_tools_arm/bin/../lib/gcc/arm-none-eabi/5.4.1/../../../../arm-none-eabi/lib/armv7e-m/fpu/fpv5-d16\libc.a(lib_a-svfiprintf.o)
 .bss           0x00000000        0x0 i:/mcu/gnu_tools_arm/bin/../lib/gcc/arm-none-eabi/5.4.1/../../../../arm-none-eabi/lib/armv7e-m/fpu/fpv5-d16\libc.a(lib_a-svfiprintf.o)
 .text._svfiprintf_r
                0x00000000      0xc5c i:/mcu/gnu_tools_arm/bin/../lib/gcc/arm-none-eabi/5.4.1/../../../../arm-none-eabi/lib/armv7e-m/fpu/fpv5-d16\libc.a(lib_a-svfiprintf.o)
 .rodata.blanks.7237
                0x00000000       0x10 i:/mcu/gnu_tools_arm/bin/../lib/gcc/arm-none-eabi/5.4.1/../../../../arm-none-eabi/lib/armv7e-m/fpu/fpv5-d16\libc.a(lib_a-svfiprintf.o)
 .rodata.str1.4
                0x00000000       0x2f i:/mcu/gnu_tools_arm/bin/../lib/gcc/arm-none-eabi/5.4.1/../../../../arm-none-eabi/lib/armv7e-m/fpu/fpv5-d16\libc.a(lib_a-svfiprintf.o)
 .rodata.zeroes.7238
                0x00000000       0x10 i:/mcu/gnu_tools_arm/bin/../lib/gcc/arm-none-eabi/5.4.1/../../../../arm-none-eabi/lib/armv7e-m/fpu/fpv5-d16\libc.a(lib_a-svfiprintf.o)
 .text          0x00000000        0x0 i:/mcu/gnu_tools_arm/bin/../lib/gcc/arm-none-eabi/5.4.1/../../../../arm-none-eabi/lib/armv7e-m/fpu/fpv5-d16\libc.a(lib_a-callocr.o)
 .data          0x00000000        0x0 i:/mcu/gnu_tools_arm/bin/../lib/gcc/arm-none-eabi/5.4.1/../../../../arm-none-eabi/lib/armv7e-m/fpu/fpv5-d16\libc.a(lib_a-callocr.o)
 .bss           0x00000000        0x0 i:/mcu/gnu_tools_arm/bin/../lib/gcc/arm-none-eabi/5.4.1/../../../../arm-none-eabi/lib/armv7e-m/fpu/fpv5-d16\libc.a(lib_a-callocr.o)
 .text          0x00000000        0x0 i:/mcu/gnu_tools_arm/bin/../lib/gcc/arm-none-eabi/5.4.1/../../../../arm-none-eabi/lib/armv7e-m/fpu/fpv5-d16\libc.a(lib_a-freer.o)
 .data          0x00000000        0x0 i:/mcu/gnu_tools_arm/bin/../lib/gcc/arm-none-eabi/5.4.1/../../../../arm-none-eabi/lib/armv7e-m/fpu/fpv5-d16\libc.a(lib_a-freer.o)
 .bss           0x00000000        0x0 i:/mcu/gnu_tools_arm/bin/../lib/gcc/arm-none-eabi/5.4.1/../../../../arm-none-eabi/lib/armv7e-m/fpu/fpv5-d16\libc.a(lib_a-freer.o)
 .text          0x00000000        0x0 i:/mcu/gnu_tools_arm/bin/../lib/gcc/arm-none-eabi/5.4.1/../../../../arm-none-eabi/lib/armv7e-m/fpu/fpv5-d16\libc.a(lib_a-locale.o)
 .data          0x00000000        0x0 i:/mcu/gnu_tools_arm/bin/../lib/gcc/arm-none-eabi/5.4.1/../../../../arm-none-eabi/lib/armv7e-m/fpu/fpv5-d16\libc.a(lib_a-locale.o)
 .bss           0x00000000        0x0 i:/mcu/gnu_tools_arm/bin/../lib/gcc/arm-none-eabi/5.4.1/../../../../arm-none-eabi/lib/armv7e-m/fpu/fpv5-d16\libc.a(lib_a-locale.o)
 .text.__get_current_locale
                0x00000000       0x18 i:/mcu/gnu_tools_arm/bin/../lib/gcc/arm-none-eabi/5.4.1/../../../../arm-none-eabi/lib/armv7e-m/fpu/fpv5-d16\libc.a(lib_a-locale.o)
 .text._setlocale_r
                0x00000000       0x40 i:/mcu/gnu_tools_arm/bin/../lib/gcc/arm-none-eabi/5.4.1/../../../../arm-none-eabi/lib/armv7e-m/fpu/fpv5-d16\libc.a(lib_a-locale.o)
 .text.__locale_mb_cur_max
                0x00000000       0x1c i:/mcu/gnu_tools_arm/bin/../lib/gcc/arm-none-eabi/5.4.1/../../../../arm-none-eabi/lib/armv7e-m/fpu/fpv5-d16\libc.a(lib_a-locale.o)
 .text.__locale_ctype_ptr_l
                0x00000000        0x8 i:/mcu/gnu_tools_arm/bin/../lib/gcc/arm-none-eabi/5.4.1/../../../../arm-none-eabi/lib/armv7e-m/fpu/fpv5-d16\libc.a(lib_a-locale.o)
 .text.__locale_ctype_ptr
                0x00000000       0x14 i:/mcu/gnu_tools_arm/bin/../lib/gcc/arm-none-eabi/5.4.1/../../../../arm-none-eabi/lib/armv7e-m/fpu/fpv5-d16\libc.a(lib_a-locale.o)
 .text.setlocale
                0x00000000       0x10 i:/mcu/gnu_tools_arm/bin/../lib/gcc/arm-none-eabi/5.4.1/../../../../arm-none-eabi/lib/armv7e-m/fpu/fpv5-d16\libc.a(lib_a-locale.o)
 .bss._PathLocale
                0x00000000        0x4 i:/mcu/gnu_tools_arm/bin/../lib/gcc/arm-none-eabi/5.4.1/../../../../arm-none-eabi/lib/armv7e-m/fpu/fpv5-d16\libc.a(lib_a-locale.o)
 .text          0x00000000        0x0 i:/mcu/gnu_tools_arm/bin/../lib/gcc/arm-none-eabi/5.4.1/../../../../arm-none-eabi/lib/armv7e-m/fpu/fpv5-d16\libc.a(lib_a-mbtowc_r.o)
 .data          0x00000000        0x0 i:/mcu/gnu_tools_arm/bin/../lib/gcc/arm-none-eabi/5.4.1/../../../../arm-none-eabi/lib/armv7e-m/fpu/fpv5-d16\libc.a(lib_a-mbtowc_r.o)
 .bss           0x00000000        0x0 i:/mcu/gnu_tools_arm/bin/../lib/gcc/arm-none-eabi/5.4.1/../../../../arm-none-eabi/lib/armv7e-m/fpu/fpv5-d16\libc.a(lib_a-mbtowc_r.o)
 .text._mbtowc_r
                0x00000000       0x24 i:/mcu/gnu_tools_arm/bin/../lib/gcc/arm-none-eabi/5.4.1/../../../../arm-none-eabi/lib/armv7e-m/fpu/fpv5-d16\libc.a(lib_a-mbtowc_r.o)
 .text          0x00000000        0x0 i:/mcu/gnu_tools_arm/bin/../lib/gcc/arm-none-eabi/5.4.1/../../../../arm-none-eabi/lib/armv7e-m/fpu/fpv5-d16\libc.a(lib_a-memmove.o)
 .data          0x00000000        0x0 i:/mcu/gnu_tools_arm/bin/../lib/gcc/arm-none-eabi/5.4.1/../../../../arm-none-eabi/lib/armv7e-m/fpu/fpv5-d16\libc.a(lib_a-memmove.o)
 .bss           0x00000000        0x0 i:/mcu/gnu_tools_arm/bin/../lib/gcc/arm-none-eabi/5.4.1/../../../../arm-none-eabi/lib/armv7e-m/fpu/fpv5-d16\libc.a(lib_a-memmove.o)
 .text          0x00000000        0x0 i:/mcu/gnu_tools_arm/bin/../lib/gcc/arm-none-eabi/5.4.1/../../../../arm-none-eabi/lib/armv7e-m/fpu/fpv5-d16\libc.a(lib_a-reallocr.o)
 .data          0x00000000        0x0 i:/mcu/gnu_tools_arm/bin/../lib/gcc/arm-none-eabi/5.4.1/../../../../arm-none-eabi/lib/armv7e-m/fpu/fpv5-d16\libc.a(lib_a-reallocr.o)
 .bss           0x00000000        0x0 i:/mcu/gnu_tools_arm/bin/../lib/gcc/arm-none-eabi/5.4.1/../../../../arm-none-eabi/lib/armv7e-m/fpu/fpv5-d16\libc.a(lib_a-reallocr.o)
 .text          0x00000000        0x0 i:/mcu/gnu_tools_arm/bin/../lib/gcc/arm-none-eabi/5.4.1/../../../../arm-none-eabi/lib/armv7e-m/fpu/fpv5-d16\libc.a(lib_a-reent.o)
 .data          0x00000000        0x0 i:/mcu/gnu_tools_arm/bin/../lib/gcc/arm-none-eabi/5.4.1/../../../../arm-none-eabi/lib/armv7e-m/fpu/fpv5-d16\libc.a(lib_a-reent.o)
 .bss           0x00000000        0x0 i:/mcu/gnu_tools_arm/bin/../lib/gcc/arm-none-eabi/5.4.1/../../../../arm-none-eabi/lib/armv7e-m/fpu/fpv5-d16\libc.a(lib_a-reent.o)
 .text.cleanup_glue
                0x00000000       0x1c i:/mcu/gnu_tools_arm/bin/../lib/gcc/arm-none-eabi/5.4.1/../../../../arm-none-eabi/lib/armv7e-m/fpu/fpv5-d16\libc.a(lib_a-reent.o)
 .text._reclaim_reent
                0x00000000       0x88 i:/mcu/gnu_tools_arm/bin/../lib/gcc/arm-none-eabi/5.4.1/../../../../arm-none-eabi/lib/armv7e-m/fpu/fpv5-d16\libc.a(lib_a-reent.o)
 .text          0x00000000      0x2dc i:/mcu/gnu_tools_arm/bin/../lib/gcc/arm-none-eabi/5.4.1/../../../../arm-none-eabi/lib/armv7e-m/fpu/fpv5-d16\libc.a(lib_a-strcmp.o)
 .data          0x00000000        0x0 i:/mcu/gnu_tools_arm/bin/../lib/gcc/arm-none-eabi/5.4.1/../../../../arm-none-eabi/lib/armv7e-m/fpu/fpv5-d16\libc.a(lib_a-strcmp.o)
 .bss           0x00000000        0x0 i:/mcu/gnu_tools_arm/bin/../lib/gcc/arm-none-eabi/5.4.1/../../../../arm-none-eabi/lib/armv7e-m/fpu/fpv5-d16\libc.a(lib_a-strcmp.o)
 .debug_frame   0x00000000       0x68 i:/mcu/gnu_tools_arm/bin/../lib/gcc/arm-none-eabi/5.4.1/../../../../arm-none-eabi/lib/armv7e-m/fpu/fpv5-d16\libc.a(lib_a-strcmp.o)
 .ARM.attributes
                0x00000000       0x1e i:/mcu/gnu_tools_arm/bin/../lib/gcc/arm-none-eabi/5.4.1/../../../../arm-none-eabi/lib/armv7e-m/fpu/fpv5-d16\libc.a(lib_a-strcmp.o)
 .text          0x00000000        0x0 i:/mcu/gnu_tools_arm/bin/../lib/gcc/arm-none-eabi/5.4.1/../../../../arm-none-eabi/lib/armv7e-m/fpu/fpv5-d16\libc.a(lib_a-wctomb_r.o)
 .data          0x00000000        0x0 i:/mcu/gnu_tools_arm/bin/../lib/gcc/arm-none-eabi/5.4.1/../../../../arm-none-eabi/lib/armv7e-m/fpu/fpv5-d16\libc.a(lib_a-wctomb_r.o)
 .bss           0x00000000        0x0 i:/mcu/gnu_tools_arm/bin/../lib/gcc/arm-none-eabi/5.4.1/../../../../arm-none-eabi/lib/armv7e-m/fpu/fpv5-d16\libc.a(lib_a-wctomb_r.o)
 .text._wctomb_r
                0x00000000       0x24 i:/mcu/gnu_tools_arm/bin/../lib/gcc/arm-none-eabi/5.4.1/../../../../arm-none-eabi/lib/armv7e-m/fpu/fpv5-d16\libc.a(lib_a-wctomb_r.o)
 .text          0x00000000        0x0 i:/mcu/gnu_tools_arm/bin/../lib/gcc/arm-none-eabi/5.4.1/../../../../arm-none-eabi/lib/armv7e-m/fpu/fpv5-d16\libc.a(lib_a-ctype_.o)
 .data          0x00000000        0x0 i:/mcu/gnu_tools_arm/bin/../lib/gcc/arm-none-eabi/5.4.1/../../../../arm-none-eabi/lib/armv7e-m/fpu/fpv5-d16\libc.a(lib_a-ctype_.o)
 .bss           0x00000000        0x0 i:/mcu/gnu_tools_arm/bin/../lib/gcc/arm-none-eabi/5.4.1/../../../../arm-none-eabi/lib/armv7e-m/fpu/fpv5-d16\libc.a(lib_a-ctype_.o)
 .text          0x00000000        0x0 i:/mcu/gnu_tools_arm/bin/../lib/gcc/arm-none-eabi/5.4.1/../../../../arm-none-eabi/lib/armv7e-m/fpu/fpv5-d16\libnosys.a(sbrk.o)
 .data          0x00000000        0x0 i:/mcu/gnu_tools_arm/bin/../lib/gcc/arm-none-eabi/5.4.1/../../../../arm-none-eabi/lib/armv7e-m/fpu/fpv5-d16\libnosys.a(sbrk.o)
 .bss           0x00000000        0x0 i:/mcu/gnu_tools_arm/bin/../lib/gcc/arm-none-eabi/5.4.1/../../../../arm-none-eabi/lib/armv7e-m/fpu/fpv5-d16\libnosys.a(sbrk.o)
 .text          0x00000000        0x0 i:/mcu/gnu_tools_arm/bin/../lib/gcc/arm-none-eabi/5.4.1/../../../../arm-none-eabi/lib/armv7e-m/fpu/fpv5-d16\libnosys.a(_exit.o)
 .data          0x00000000        0x0 i:/mcu/gnu_tools_arm/bin/../lib/gcc/arm-none-eabi/5.4.1/../../../../arm-none-eabi/lib/armv7e-m/fpu/fpv5-d16\libnosys.a(_exit.o)
 .bss           0x00000000        0x0 i:/mcu/gnu_tools_arm/bin/../lib/gcc/arm-none-eabi/5.4.1/../../../../arm-none-eabi/lib/armv7e-m/fpu/fpv5-d16\libnosys.a(_exit.o)
 .debug_frame   0x00000000       0x20 i:/mcu/gnu_tools_arm/bin/../lib/gcc/arm-none-eabi/5.4.1/../../../../arm-none-eabi/lib/armv7e-m/fpu/fpv5-d16\libnosys.a(_exit.o)
 .ARM.attributes
                0x00000000       0x32 i:/mcu/gnu_tools_arm/bin/../lib/gcc/arm-none-eabi/5.4.1/../../../../arm-none-eabi/lib/armv7e-m/fpu/fpv5-d16\libnosys.a(_exit.o)
 .data          0x00000000        0x0 i:/mcu/gnu_tools_arm/bin/../lib/gcc/arm-none-eabi/5.4.1/armv7e-m/fpu/fpv5-d16\libgcc.a(_aeabi_uldivmod.o)
 .bss           0x00000000        0x0 i:/mcu/gnu_tools_arm/bin/../lib/gcc/arm-none-eabi/5.4.1/armv7e-m/fpu/fpv5-d16\libgcc.a(_aeabi_uldivmod.o)
 .data          0x00000000        0x0 i:/mcu/gnu_tools_arm/bin/../lib/gcc/arm-none-eabi/5.4.1/armv7e-m/fpu/fpv5-d16\libgcc.a(_udivmoddi4.o)
 .bss           0x00000000        0x0 i:/mcu/gnu_tools_arm/bin/../lib/gcc/arm-none-eabi/5.4.1/armv7e-m/fpu/fpv5-d16\libgcc.a(_udivmoddi4.o)
 .ARM.extab     0x00000000        0x0 i:/mcu/gnu_tools_arm/bin/../lib/gcc/arm-none-eabi/5.4.1/armv7e-m/fpu/fpv5-d16\libgcc.a(_udivmoddi4.o)
 .data          0x00000000        0x0 i:/mcu/gnu_tools_arm/bin/../lib/gcc/arm-none-eabi/5.4.1/armv7e-m/fpu/fpv5-d16\libgcc.a(unwind-arm.o)
 .bss           0x00000000        0x0 i:/mcu/gnu_tools_arm/bin/../lib/gcc/arm-none-eabi/5.4.1/armv7e-m/fpu/fpv5-d16\libgcc.a(unwind-arm.o)
 .ARM.extab     0x00000000        0x0 i:/mcu/gnu_tools_arm/bin/../lib/gcc/arm-none-eabi/5.4.1/armv7e-m/fpu/fpv5-d16\libgcc.a(unwind-arm.o)
 .debug_frame   0x00000000      0x2f4 i:/mcu/gnu_tools_arm/bin/../lib/gcc/arm-none-eabi/5.4.1/armv7e-m/fpu/fpv5-d16\libgcc.a(unwind-arm.o)
 .ARM.attributes
                0x00000000       0x32 i:/mcu/gnu_tools_arm/bin/../lib/gcc/arm-none-eabi/5.4.1/armv7e-m/fpu/fpv5-d16\libgcc.a(unwind-arm.o)
 .data          0x00000000        0x0 i:/mcu/gnu_tools_arm/bin/../lib/gcc/arm-none-eabi/5.4.1/armv7e-m/fpu/fpv5-d16\libgcc.a(libunwind.o)
 .bss           0x00000000        0x0 i:/mcu/gnu_tools_arm/bin/../lib/gcc/arm-none-eabi/5.4.1/armv7e-m/fpu/fpv5-d16\libgcc.a(libunwind.o)
 .ARM.attributes
                0x00000000       0x20 i:/mcu/gnu_tools_arm/bin/../lib/gcc/arm-none-eabi/5.4.1/armv7e-m/fpu/fpv5-d16\libgcc.a(libunwind.o)
 .data          0x00000000        0x0 i:/mcu/gnu_tools_arm/bin/../lib/gcc/arm-none-eabi/5.4.1/armv7e-m/fpu/fpv5-d16\libgcc.a(pr-support.o)
 .bss           0x00000000        0x0 i:/mcu/gnu_tools_arm/bin/../lib/gcc/arm-none-eabi/5.4.1/armv7e-m/fpu/fpv5-d16\libgcc.a(pr-support.o)
 .debug_frame   0x00000000      0x104 i:/mcu/gnu_tools_arm/bin/../lib/gcc/arm-none-eabi/5.4.1/armv7e-m/fpu/fpv5-d16\libgcc.a(pr-support.o)
 .ARM.attributes
                0x00000000       0x32 i:/mcu/gnu_tools_arm/bin/../lib/gcc/arm-none-eabi/5.4.1/armv7e-m/fpu/fpv5-d16\libgcc.a(pr-support.o)
 .data          0x00000000        0x0 i:/mcu/gnu_tools_arm/bin/../lib/gcc/arm-none-eabi/5.4.1/armv7e-m/fpu/fpv5-d16\libgcc.a(_dvmd_tls.o)
 .bss           0x00000000        0x0 i:/mcu/gnu_tools_arm/bin/../lib/gcc/arm-none-eabi/5.4.1/armv7e-m/fpu/fpv5-d16\libgcc.a(_dvmd_tls.o)
 .text          0x00000000        0x0 i:/mcu/gnu_tools_arm/bin/../lib/gcc/arm-none-eabi/5.4.1/../../../../arm-none-eabi/lib/armv7e-m/fpu/fpv5-d16\libc.a(lib_a-abort.o)
 .data          0x00000000        0x0 i:/mcu/gnu_tools_arm/bin/../lib/gcc/arm-none-eabi/5.4.1/../../../../arm-none-eabi/lib/armv7e-m/fpu/fpv5-d16\libc.a(lib_a-abort.o)
 .bss           0x00000000        0x0 i:/mcu/gnu_tools_arm/bin/../lib/gcc/arm-none-eabi/5.4.1/../../../../arm-none-eabi/lib/armv7e-m/fpu/fpv5-d16\libc.a(lib_a-abort.o)
 .debug_frame   0x00000000       0x28 i:/mcu/gnu_tools_arm/bin/../lib/gcc/arm-none-eabi/5.4.1/../../../../arm-none-eabi/lib/armv7e-m/fpu/fpv5-d16\libc.a(lib_a-abort.o)
 .ARM.attributes
                0x00000000       0x32 i:/mcu/gnu_tools_arm/bin/../lib/gcc/arm-none-eabi/5.4.1/../../../../arm-none-eabi/lib/armv7e-m/fpu/fpv5-d16\libc.a(lib_a-abort.o)
 .text          0x00000000        0x0 i:/mcu/gnu_tools_arm/bin/../lib/gcc/arm-none-eabi/5.4.1/../../../../arm-none-eabi/lib/armv7e-m/fpu/fpv5-d16\libc.a(lib_a-signal.o)
 .data          0x00000000        0x0 i:/mcu/gnu_tools_arm/bin/../lib/gcc/arm-none-eabi/5.4.1/../../../../arm-none-eabi/lib/armv7e-m/fpu/fpv5-d16\libc.a(lib_a-signal.o)
 .bss           0x00000000        0x0 i:/mcu/gnu_tools_arm/bin/../lib/gcc/arm-none-eabi/5.4.1/../../../../arm-none-eabi/lib/armv7e-m/fpu/fpv5-d16\libc.a(lib_a-signal.o)
 .text._init_signal_r
                0x00000000       0x38 i:/mcu/gnu_tools_arm/bin/../lib/gcc/arm-none-eabi/5.4.1/../../../../arm-none-eabi/lib/armv7e-m/fpu/fpv5-d16\libc.a(lib_a-signal.o)
 .text._signal_r
                0x00000000       0x38 i:/mcu/gnu_tools_arm/bin/../lib/gcc/arm-none-eabi/5.4.1/../../../../arm-none-eabi/lib/armv7e-m/fpu/fpv5-d16\libc.a(lib_a-signal.o)
 .text.__sigtramp_r
                0x00000000       0x54 i:/mcu/gnu_tools_arm/bin/../lib/gcc/arm-none-eabi/5.4.1/../../../../arm-none-eabi/lib/armv7e-m/fpu/fpv5-d16\libc.a(lib_a-signal.o)
 .text.signal   0x00000000       0x10 i:/mcu/gnu_tools_arm/bin/../lib/gcc/arm-none-eabi/5.4.1/../../../../arm-none-eabi/lib/armv7e-m/fpu/fpv5-d16\libc.a(lib_a-signal.o)
 .text._init_signal
                0x00000000        0xc i:/mcu/gnu_tools_arm/bin/../lib/gcc/arm-none-eabi/5.4.1/../../../../arm-none-eabi/lib/armv7e-m/fpu/fpv5-d16\libc.a(lib_a-signal.o)
 .text.__sigtramp
                0x00000000       0x10 i:/mcu/gnu_tools_arm/bin/../lib/gcc/arm-none-eabi/5.4.1/../../../../arm-none-eabi/lib/armv7e-m/fpu/fpv5-d16\libc.a(lib_a-signal.o)
 .debug_frame   0x00000000       0xe4 i:/mcu/gnu_tools_arm/bin/../lib/gcc/arm-none-eabi/5.4.1/../../../../arm-none-eabi/lib/armv7e-m/fpu/fpv5-d16\libc.a(lib_a-signal.o)
 .ARM.attributes
                0x00000000       0x32 i:/mcu/gnu_tools_arm/bin/../lib/gcc/arm-none-eabi/5.4.1/../../../../arm-none-eabi/lib/armv7e-m/fpu/fpv5-d16\libc.a(lib_a-signal.o)
 .text          0x00000000        0x0 i:/mcu/gnu_tools_arm/bin/../lib/gcc/arm-none-eabi/5.4.1/../../../../arm-none-eabi/lib/armv7e-m/fpu/fpv5-d16\libc.a(lib_a-signalr.o)
 .data          0x00000000        0x0 i:/mcu/gnu_tools_arm/bin/../lib/gcc/arm-none-eabi/5.4.1/../../../../arm-none-eabi/lib/armv7e-m/fpu/fpv5-d16\libc.a(lib_a-signalr.o)
 .bss           0x00000000        0x0 i:/mcu/gnu_tools_arm/bin/../lib/gcc/arm-none-eabi/5.4.1/../../../../arm-none-eabi/lib/armv7e-m/fpu/fpv5-d16\libc.a(lib_a-signalr.o)
 .debug_frame   0x00000000       0x3c i:/mcu/gnu_tools_arm/bin/../lib/gcc/arm-none-eabi/5.4.1/../../../../arm-none-eabi/lib/armv7e-m/fpu/fpv5-d16\libc.a(lib_a-signalr.o)
 .ARM.attributes
                0x00000000       0x32 i:/mcu/gnu_tools_arm/bin/../lib/gcc/arm-none-eabi/5.4.1/../../../../arm-none-eabi/lib/armv7e-m/fpu/fpv5-d16\libc.a(lib_a-signalr.o)
 .text          0x00000000        0x0 i:/mcu/gnu_tools_arm/bin/../lib/gcc/arm-none-eabi/5.4.1/../../../../arm-none-eabi/lib/armv7e-m/fpu/fpv5-d16\libnosys.a(getpid.o)
 .data          0x00000000        0x0 i:/mcu/gnu_tools_arm/bin/../lib/gcc/arm-none-eabi/5.4.1/../../../../arm-none-eabi/lib/armv7e-m/fpu/fpv5-d16\libnosys.a(getpid.o)
 .bss           0x00000000        0x0 i:/mcu/gnu_tools_arm/bin/../lib/gcc/arm-none-eabi/5.4.1/../../../../arm-none-eabi/lib/armv7e-m/fpu/fpv5-d16\libnosys.a(getpid.o)
 .stab          0x00000000       0x24 i:/mcu/gnu_tools_arm/bin/../lib/gcc/arm-none-eabi/5.4.1/../../../../arm-none-eabi/lib/armv7e-m/fpu/fpv5-d16\libnosys.a(getpid.o)
 .debug_frame   0x00000000       0x20 i:/mcu/gnu_tools_arm/bin/../lib/gcc/arm-none-eabi/5.4.1/../../../../arm-none-eabi/lib/armv7e-m/fpu/fpv5-d16\libnosys.a(getpid.o)
 .ARM.attributes
                0x00000000       0x32 i:/mcu/gnu_tools_arm/bin/../lib/gcc/arm-none-eabi/5.4.1/../../../../arm-none-eabi/lib/armv7e-m/fpu/fpv5-d16\libnosys.a(getpid.o)
 .text          0x00000000        0x0 i:/mcu/gnu_tools_arm/bin/../lib/gcc/arm-none-eabi/5.4.1/../../../../arm-none-eabi/lib/armv7e-m/fpu/fpv5-d16\libnosys.a(kill.o)
 .data          0x00000000        0x0 i:/mcu/gnu_tools_arm/bin/../lib/gcc/arm-none-eabi/5.4.1/../../../../arm-none-eabi/lib/armv7e-m/fpu/fpv5-d16\libnosys.a(kill.o)
 .bss           0x00000000        0x0 i:/mcu/gnu_tools_arm/bin/../lib/gcc/arm-none-eabi/5.4.1/../../../../arm-none-eabi/lib/armv7e-m/fpu/fpv5-d16\libnosys.a(kill.o)
 .stab          0x00000000       0x18 i:/mcu/gnu_tools_arm/bin/../lib/gcc/arm-none-eabi/5.4.1/../../../../arm-none-eabi/lib/armv7e-m/fpu/fpv5-d16\libnosys.a(kill.o)
                                 0x24 (size before relaxing)
 .debug_frame   0x00000000       0x20 i:/mcu/gnu_tools_arm/bin/../lib/gcc/arm-none-eabi/5.4.1/../../../../arm-none-eabi/lib/armv7e-m/fpu/fpv5-d16\libnosys.a(kill.o)
 .ARM.attributes
                0x00000000       0x32 i:/mcu/gnu_tools_arm/bin/../lib/gcc/arm-none-eabi/5.4.1/../../../../arm-none-eabi/lib/armv7e-m/fpu/fpv5-d16\libnosys.a(kill.o)
 .text          0x00000000        0x0 i:/mcu/gnu_tools_arm/bin/../lib/gcc/arm-none-eabi/5.4.1/armv7e-m/fpu/fpv5-d16/crtend.o
 .data          0x00000000        0x0 i:/mcu/gnu_tools_arm/bin/../lib/gcc/arm-none-eabi/5.4.1/armv7e-m/fpu/fpv5-d16/crtend.o
 .bss           0x00000000        0x0 i:/mcu/gnu_tools_arm/bin/../lib/gcc/arm-none-eabi/5.4.1/armv7e-m/fpu/fpv5-d16/crtend.o
 .eh_frame      0x00000000        0x4 i:/mcu/gnu_tools_arm/bin/../lib/gcc/arm-none-eabi/5.4.1/armv7e-m/fpu/fpv5-d16/crtend.o
 .jcr           0x00000000        0x4 i:/mcu/gnu_tools_arm/bin/../lib/gcc/arm-none-eabi/5.4.1/armv7e-m/fpu/fpv5-d16/crtend.o
 .ARM.attributes
                0x00000000       0x32 i:/mcu/gnu_tools_arm/bin/../lib/gcc/arm-none-eabi/5.4.1/armv7e-m/fpu/fpv5-d16/crtend.o
 .text          0x00000000        0x0 i:/mcu/gnu_tools_arm/bin/../lib/gcc/arm-none-eabi/5.4.1/armv7e-m/fpu/fpv5-d16/crtn.o
 .data          0x00000000        0x0 i:/mcu/gnu_tools_arm/bin/../lib/gcc/arm-none-eabi/5.4.1/armv7e-m/fpu/fpv5-d16/crtn.o
 .bss           0x00000000        0x0 i:/mcu/gnu_tools_arm/bin/../lib/gcc/arm-none-eabi/5.4.1/armv7e-m/fpu/fpv5-d16/crtn.o

Memory Configuration

Name             Origin             Length             Attributes
DTCMRAM          0x20000000         0x00020000         xrw
RAM_D1           0x24000000         0x00080000         xrw
RAM_D2           0x30000000         0x00048000         xrw
RAM_D3           0x38000000         0x00010000         xrw
ITCMRAM          0x00000000         0x00010000         xrw
FLASH            0x90000000         0x00800000         xr
*default*        0x00000000         0xffffffff

Linker script and memory map

LOAD i:/mcu/gnu_tools_arm/bin/../lib/gcc/arm-none-eabi/5.4.1/armv7e-m/fpu/fpv5-d16/crti.o
LOAD i:/mcu/gnu_tools_arm/bin/../lib/gcc/arm-none-eabi/5.4.1/armv7e-m/fpu/fpv5-d16/crtbegin.o
LOAD i:/mcu/gnu_tools_arm/bin/../lib/gcc/arm-none-eabi/5.4.1/../../../../arm-none-eabi/lib/armv7e-m/fpu/fpv5-d16/crt0.o
LOAD build/stm32h7xx_it.o
LOAD build/stm32h7xx_hal_msp.o
LOAD build/stm32h7xx_hal_cortex.o
LOAD build/stm32h7xx_hal_tim.o
LOAD build/stm32h7xx_hal_tim_ex.o
LOAD build/stm32h7xx_hal_rcc.o
LOAD build/stm32h7xx_hal_rcc_ex.o
LOAD build/stm32h7xx_hal_flash.o
LOAD build/stm32h7xx_hal_flash_ex.o
LOAD build/stm32h7xx_hal_gpio.o
LOAD build/stm32h7xx_hal_hsem.o
LOAD build/stm32h7xx_hal_dma.o
LOAD build/stm32h7xx_hal_dma_ex.o
LOAD build/stm32h7xx_hal_mdma.o
LOAD build/stm32h7xx_hal_pwr.o
LOAD build/stm32h7xx_hal_pwr_ex.o
LOAD build/stm32h7xx_hal.o
LOAD build/stm32h7xx_hal_i2c.o
LOAD build/stm32h7xx_hal_i2c_ex.o
LOAD build/stm32h7xx_hal_exti.o
LOAD build/system_stm32h7xx.o
LOAD build/gpio.o
LOAD build/main.o
LOAD build/dma.o
LOAD build/usart.o
LOAD build/stm32h7xx_hal_uart.o
LOAD build/stm32h7xx_hal_uart_ex.o
LOAD build/bsp_clk.o
LOAD build/bsp_cpu.o
LOAD build/bsp_led.o
LOAD build/bsp_os.o
LOAD build/os_app_hooks.o
LOAD build/cpu_core.o
LOAD build/cpu_c.o
LOAD build/lib_ascii.o
LOAD build/lib_math.o
LOAD build/lib_mem.o
LOAD build/lib_str.o
LOAD build/os_cpu_c.o
LOAD build/os_cfg_app.o
LOAD build/os_core.o
LOAD build/os_dbg.o
LOAD build/os_flag.o
LOAD build/os_mem.o
LOAD build/os_mon.o
LOAD build/os_msg.o
LOAD build/os_mutex.o
LOAD build/os_prio.o
LOAD build/os_q.o
LOAD build/os_sem.o
LOAD build/os_stat.o
LOAD build/os_task.o
LOAD build/os_time.o
LOAD build/os_tick.o
LOAD build/os_tmr.o
LOAD build/os_var.o
LOAD build/app.o
LOAD build/app_task.o
LOAD build/bsp_uart.o
LOAD build/startup_stm32h750xx.o
LOAD build/cpu_a.o
LOAD build/os_cpu_a.o
LOAD i:/mcu/gnu_tools_arm/bin/../lib/gcc/arm-none-eabi/5.4.1/../../../../arm-none-eabi/lib/armv7e-m/fpu/fpv5-d16\libc.a
LOAD i:/mcu/gnu_tools_arm/bin/../lib/gcc/arm-none-eabi/5.4.1/../../../../arm-none-eabi/lib/armv7e-m/fpu/fpv5-d16\libm.a
LOAD i:/mcu/gnu_tools_arm/bin/../lib/gcc/arm-none-eabi/5.4.1/../../../../arm-none-eabi/lib/armv7e-m/fpu/fpv5-d16\libnosys.a
START GROUP
LOAD i:/mcu/gnu_tools_arm/bin/../lib/gcc/arm-none-eabi/5.4.1/armv7e-m/fpu/fpv5-d16\libgcc.a
LOAD i:/mcu/gnu_tools_arm/bin/../lib/gcc/arm-none-eabi/5.4.1/../../../../arm-none-eabi/lib/armv7e-m/fpu/fpv5-d16\libc.a
END GROUP
START GROUP
LOAD i:/mcu/gnu_tools_arm/bin/../lib/gcc/arm-none-eabi/5.4.1/armv7e-m/fpu/fpv5-d16\libgcc.a
LOAD i:/mcu/gnu_tools_arm/bin/../lib/gcc/arm-none-eabi/5.4.1/../../../../arm-none-eabi/lib/armv7e-m/fpu/fpv5-d16\libc.a
LOAD i:/mcu/gnu_tools_arm/bin/../lib/gcc/arm-none-eabi/5.4.1/../../../../arm-none-eabi/lib/armv7e-m/fpu/fpv5-d16\libnosys.a
END GROUP
LOAD i:/mcu/gnu_tools_arm/bin/../lib/gcc/arm-none-eabi/5.4.1/armv7e-m/fpu/fpv5-d16/crtend.o
LOAD i:/mcu/gnu_tools_arm/bin/../lib/gcc/arm-none-eabi/5.4.1/armv7e-m/fpu/fpv5-d16/crtn.o
                0x24080000                _estack = (ORIGIN (RAM_D1) + LENGTH (RAM_D1))
                0x00000400                _Min_Heap_Size = 0x400
                0x00000400                _Min_Stack_Size = 0x400

.isr_vector     0x90000000      0x298
                0x90000000                . = ALIGN (0x4)
 *(.isr_vector)
 .isr_vector    0x90000000      0x298 build/startup_stm32h750xx.o
                0x90000000                g_pfnVectors
                0x90000298                . = ALIGN (0x4)

.text           0x900002c0     0xbeb0
                0x900002c0                . = ALIGN (0x4)
 *(.text)
 .text          0x900002c0       0x5c i:/mcu/gnu_tools_arm/bin/../lib/gcc/arm-none-eabi/5.4.1/armv7e-m/fpu/fpv5-d16/crtbegin.o
 .text          0x9000031c       0x34 build/cpu_a.o
                0x9000031c                CPU_IntDis
                0x90000320                CPU_IntEn
                0x90000324                CPU_SR_Save
                0x9000032c                CPU_SR_Restore
                0x90000332                CPU_WaitForInt
                0x90000336                CPU_WaitForExcept
                0x9000033a                CPU_CntLeadZeros
                0x90000340                CPU_CntTrailZeros
                0x9000034a                CPU_RevBits
 .text          0x90000350      0x108 build/os_cpu_a.o
                0x90000350                OS_CPU_FP_Reg_Push
                0x90000362                OS_CPU_FP_Reg_Pop
                0x9000036e                OSStartHighRdy
                0x900003e8                OSCtxSw
                0x900003f2                OSIntCtxSw
                0x900003fc                OS_CPU_PendSVHandler
 *fill*         0x90000458        0x8 
 .text          0x90000460       0xa0 i:/mcu/gnu_tools_arm/bin/../lib/gcc/arm-none-eabi/5.4.1/../../../../arm-none-eabi/lib/armv7e-m/fpu/fpv5-d16\libc.a(lib_a-memchr.o)
                0x90000460                memchr
 .text          0x90000500      0x134 i:/mcu/gnu_tools_arm/bin/../lib/gcc/arm-none-eabi/5.4.1/../../../../arm-none-eabi/lib/armv7e-m/fpu/fpv5-d16\libc.a(lib_a-memcpy.o)
                0x90000500                memcpy
 *fill*         0x90000634        0xc 
 .text          0x90000640       0xdc i:/mcu/gnu_tools_arm/bin/../lib/gcc/arm-none-eabi/5.4.1/../../../../arm-none-eabi/lib/armv7e-m/fpu/fpv5-d16\libc.a(lib_a-strlen.o)
                0x90000640                strlen
 .text          0x9000071c       0x30 i:/mcu/gnu_tools_arm/bin/../lib/gcc/arm-none-eabi/5.4.1/armv7e-m/fpu/fpv5-d16\libgcc.a(_aeabi_uldivmod.o)
                0x9000071c                __aeabi_uldivmod
 .text          0x9000074c      0x2e4 i:/mcu/gnu_tools_arm/bin/../lib/gcc/arm-none-eabi/5.4.1/armv7e-m/fpu/fpv5-d16\libgcc.a(_udivmoddi4.o)
                0x9000074c                __udivmoddi4
 .text          0x90000a30      0x9dc i:/mcu/gnu_tools_arm/bin/../lib/gcc/arm-none-eabi/5.4.1/armv7e-m/fpu/fpv5-d16\libgcc.a(unwind-arm.o)
                0x90000cec                _Unwind_GetCFA
                0x90000cf0                __gnu_Unwind_RaiseException
                0x90000d50                __gnu_Unwind_ForcedUnwind
                0x90000d64                __gnu_Unwind_Resume
                0x90000da8                __gnu_Unwind_Resume_or_Rethrow
                0x90000db8                _Unwind_Complete
                0x90000dbc                _Unwind_DeleteException
                0x90000dc8                _Unwind_VRS_Get
                0x90000e14                _Unwind_VRS_Set
                0x90000e64                __gnu_Unwind_Backtrace
                0x900011b0                __aeabi_unwind_cpp_pr0
                0x900011b4                __aeabi_unwind_cpp_pr1
                0x900011b8                __aeabi_unwind_cpp_pr2
                0x900011bc                _Unwind_VRS_Pop
 .text          0x9000140c      0x1ac i:/mcu/gnu_tools_arm/bin/../lib/gcc/arm-none-eabi/5.4.1/armv7e-m/fpu/fpv5-d16\libgcc.a(libunwind.o)
                0x9000140c                __restore_core_regs
                0x9000140c                restore_core_regs
                0x90001424                __gnu_Unwind_Restore_VFP
                0x9000142c                __gnu_Unwind_Save_VFP
                0x90001434                __gnu_Unwind_Restore_VFP_D
                0x9000143c                __gnu_Unwind_Save_VFP_D
                0x90001444                __gnu_Unwind_Restore_VFP_D_16_to_31
                0x9000144c                __gnu_Unwind_Save_VFP_D_16_to_31
                0x90001454                __gnu_Unwind_Restore_WMMXD
                0x90001498                __gnu_Unwind_Save_WMMXD
                0x900014dc                __gnu_Unwind_Restore_WMMXC
                0x900014f0                __gnu_Unwind_Save_WMMXC
                0x90001504                ___Unwind_RaiseException
                0x90001504                _Unwind_RaiseException
                0x90001528                _Unwind_Resume
                0x90001528                ___Unwind_Resume
                0x9000154c                _Unwind_Resume_or_Rethrow
                0x9000154c                ___Unwind_Resume_or_Rethrow
                0x90001570                _Unwind_ForcedUnwind
                0x90001570                ___Unwind_ForcedUnwind
                0x90001594                ___Unwind_Backtrace
                0x90001594                _Unwind_Backtrace
 .text          0x900015b8      0x354 i:/mcu/gnu_tools_arm/bin/../lib/gcc/arm-none-eabi/5.4.1/armv7e-m/fpu/fpv5-d16\libgcc.a(pr-support.o)
                0x90001610                __gnu_unwind_execute
                0x900018b4                __gnu_unwind_frame
                0x900018dc                _Unwind_GetRegionStart
                0x900018e8                _Unwind_GetLanguageSpecificData
                0x900018fc                _Unwind_GetTextRelBase
                0x90001904                _Unwind_GetDataRelBase
 .text          0x9000190c        0x4 i:/mcu/gnu_tools_arm/bin/../lib/gcc/arm-none-eabi/5.4.1/armv7e-m/fpu/fpv5-d16\libgcc.a(_dvmd_tls.o)
                0x9000190c                __aeabi_idiv0
                0x9000190c                __aeabi_ldiv0
 *(.text*)
 .text.NMI_Handler
                0x90001910        0x4 build/stm32h7xx_it.o
                0x90001910                NMI_Handler
 .text.HardFault_Handler
                0x90001914        0x4 build/stm32h7xx_it.o
                0x90001914                HardFault_Handler
 .text.MemManage_Handler
                0x90001918        0x4 build/stm32h7xx_it.o
                0x90001918                MemManage_Handler
 .text.BusFault_Handler
                0x9000191c        0x4 build/stm32h7xx_it.o
                0x9000191c                BusFault_Handler
 .text.UsageFault_Handler
                0x90001920        0x4 build/stm32h7xx_it.o
                0x90001920                UsageFault_Handler
 .text.SVC_Handler
                0x90001924        0x4 build/stm32h7xx_it.o
                0x90001924                SVC_Handler
 .text.DebugMon_Handler
                0x90001928        0x4 build/stm32h7xx_it.o
                0x90001928                DebugMon_Handler
 .text.DMA1_Stream0_IRQHandler
                0x9000192c       0x10 build/stm32h7xx_it.o
                0x9000192c                DMA1_Stream0_IRQHandler
 .text.DMA1_Stream1_IRQHandler
                0x9000193c       0x10 build/stm32h7xx_it.o
                0x9000193c                DMA1_Stream1_IRQHandler
 .text.UART4_IRQHandler
                0x9000194c       0xb4 build/stm32h7xx_it.o
                0x9000194c                UART4_IRQHandler
 .text.HAL_MspInit
                0x90001a00       0x24 build/stm32h7xx_hal_msp.o
                0x90001a00                HAL_MspInit
 .text.HAL_NVIC_SetPriorityGrouping
                0x90001a24       0x24 build/stm32h7xx_hal_cortex.o
                0x90001a24                HAL_NVIC_SetPriorityGrouping
 .text.HAL_NVIC_SetPriority
                0x90001a48       0x60 build/stm32h7xx_hal_cortex.o
                0x90001a48                HAL_NVIC_SetPriority
 .text.HAL_NVIC_EnableIRQ
                0x90001aa8       0x1c build/stm32h7xx_hal_cortex.o
                0x90001aa8                HAL_NVIC_EnableIRQ
 .text.HAL_SYSTICK_Config
                0x90001ac4       0x2c build/stm32h7xx_hal_cortex.o
                0x90001ac4                HAL_SYSTICK_Config
 .text.HAL_RCC_OscConfig
                0x90001af0      0x684 build/stm32h7xx_hal_rcc.o
                0x90001af0                HAL_RCC_OscConfig
 .text.HAL_RCC_GetSysClockFreq
                0x90002174      0x1f8 build/stm32h7xx_hal_rcc.o
                0x90002174                HAL_RCC_GetSysClockFreq
 .text.HAL_RCC_ClockConfig
                0x9000236c      0x29c build/stm32h7xx_hal_rcc.o
                0x9000236c                HAL_RCC_ClockConfig
 .text.HAL_RCC_GetHCLKFreq
                0x90002608       0x44 build/stm32h7xx_hal_rcc.o
                0x90002608                HAL_RCC_GetHCLKFreq
 .text.HAL_RCC_GetPCLK1Freq
                0x9000264c       0x24 build/stm32h7xx_hal_rcc.o
                0x9000264c                HAL_RCC_GetPCLK1Freq
 .text.HAL_RCC_GetPCLK2Freq
                0x90002670       0x24 build/stm32h7xx_hal_rcc.o
                0x90002670                HAL_RCC_GetPCLK2Freq
 .text.RCCEx_PLL2_Config
                0x90002694      0x114 build/stm32h7xx_hal_rcc_ex.o
 .text.RCCEx_PLL3_Config
                0x900027a8      0x114 build/stm32h7xx_hal_rcc_ex.o
 .text.HAL_RCCEx_PeriphCLKConfig
                0x900028bc      0x92c build/stm32h7xx_hal_rcc_ex.o
                0x900028bc                HAL_RCCEx_PeriphCLKConfig
 .text.HAL_RCCEx_GetD3PCLK1Freq
                0x900031e8       0x24 build/stm32h7xx_hal_rcc_ex.o
                0x900031e8                HAL_RCCEx_GetD3PCLK1Freq
 .text.HAL_RCCEx_GetPLL2ClockFreq
                0x9000320c      0x1f8 build/stm32h7xx_hal_rcc_ex.o
                0x9000320c                HAL_RCCEx_GetPLL2ClockFreq
 .text.HAL_RCCEx_GetPLL3ClockFreq
                0x90003404      0x1f8 build/stm32h7xx_hal_rcc_ex.o
                0x90003404                HAL_RCCEx_GetPLL3ClockFreq
 .text.HAL_GPIO_Init
                0x900035fc      0x1f4 build/stm32h7xx_hal_gpio.o
                0x900035fc                HAL_GPIO_Init
 .text.HAL_GPIO_WritePin
                0x900037f0        0xc build/stm32h7xx_hal_gpio.o
                0x900037f0                HAL_GPIO_WritePin
 .text.HAL_GPIO_TogglePin
                0x900037fc       0x14 build/stm32h7xx_hal_gpio.o
                0x900037fc                HAL_GPIO_TogglePin
 .text.DMA_SetConfig
                0x90003810      0x268 build/stm32h7xx_hal_dma.o
 .text.DMA_CalcBaseAndBitshift
                0x90003a78       0xf8 build/stm32h7xx_hal_dma.o
 .text.DMA_CheckFifoParam
                0x90003b70       0x94 build/stm32h7xx_hal_dma.o
 .text.DMA_CalcDMAMUXChannelBaseAndMask
                0x90003c04       0xcc build/stm32h7xx_hal_dma.o
 .text.DMA_CalcDMAMUXRequestGenBaseAndMask
                0x90003cd0       0x9c build/stm32h7xx_hal_dma.o
 .text.HAL_DMA_Init
                0x90003d6c      0x460 build/stm32h7xx_hal_dma.o
                0x90003d6c                HAL_DMA_Init
 .text.HAL_DMA_Start_IT
                0x900041cc      0x344 build/stm32h7xx_hal_dma.o
                0x900041cc                HAL_DMA_Start_IT
 .text.HAL_DMA_Abort_IT
                0x90004510      0x30c build/stm32h7xx_hal_dma.o
                0x90004510                HAL_DMA_Abort_IT
 .text.HAL_DMA_IRQHandler
                0x9000481c      0x7f4 build/stm32h7xx_hal_dma.o
                0x9000481c                HAL_DMA_IRQHandler
 .text.HAL_PWREx_ConfigSupply
                0x90005010       0x58 build/stm32h7xx_hal_pwr_ex.o
                0x90005010                HAL_PWREx_ConfigSupply
 .text.HAL_InitTick
                0x90005068       0x50 build/stm32h7xx_hal.o
                0x90005068                HAL_InitTick
 .text.HAL_Init
                0x900050b8       0x5c build/stm32h7xx_hal.o
                0x900050b8                HAL_Init
 .text.HAL_GetTick
                0x90005114        0xc build/stm32h7xx_hal.o
                0x90005114                HAL_GetTick
 .text.HAL_GetREVID
                0x90005120        0xc build/stm32h7xx_hal.o
                0x90005120                HAL_GetREVID
 .text.SystemInit
                0x9000512c       0xd4 build/system_stm32h7xx.o
                0x9000512c                SystemInit
 .text.MX_GPIO_Init
                0x90005200       0x88 build/gpio.o
                0x90005200                MX_GPIO_Init
 .text.MX_DMA_Init
                0x90005288       0x48 build/dma.o
                0x90005288                MX_DMA_Init
 .text.MX_UART4_Init
                0x900052d0       0x64 build/usart.o
                0x900052d0                MX_UART4_Init
 .text.HAL_UART_MspInit
                0x90005334      0x1bc build/usart.o
                0x90005334                HAL_UART_MspInit
 .text.UART_EndTxTransfer
                0x900054f0       0x1c build/stm32h7xx_hal_uart.o
 .text.UART_EndRxTransfer
                0x9000550c       0x24 build/stm32h7xx_hal_uart.o
 .text.HAL_UART_Receive_DMA
                0x90005530       0xb4 build/stm32h7xx_hal_uart.o
                0x90005530                HAL_UART_Receive_DMA
 .text.HAL_UART_TxCpltCallback
                0x900055e4        0x4 build/stm32h7xx_hal_uart.o
                0x900055e4                HAL_UART_TxCpltCallback
 .text.UART_EndTransmit_IT
                0x900055e8       0x1c build/stm32h7xx_hal_uart.o
 .text.HAL_UART_RxCpltCallback
                0x90005604        0x4 build/stm32h7xx_hal_uart.o
                0x90005604                HAL_UART_RxCpltCallback
 .text.UART_DMAReceiveCplt
                0x90005608       0x40 build/stm32h7xx_hal_uart.o
 .text.HAL_UART_RxHalfCpltCallback
                0x90005648        0x4 build/stm32h7xx_hal_uart.o
                0x90005648                HAL_UART_RxHalfCpltCallback
 .text.UART_DMARxHalfCplt
                0x9000564c        0xc build/stm32h7xx_hal_uart.o
 .text.HAL_UART_ErrorCallback
                0x90005658        0x4 build/stm32h7xx_hal_uart.o
                0x90005658                HAL_UART_ErrorCallback
 .text.UART_DMAError
                0x9000565c       0x54 build/stm32h7xx_hal_uart.o
 .text.HAL_UART_IRQHandler
                0x900056b0      0x1e0 build/stm32h7xx_hal_uart.o
                0x900056b0                HAL_UART_IRQHandler
 .text.UART_DMAAbortOnError
                0x90005890       0x14 build/stm32h7xx_hal_uart.o
 .text.UART_SetConfig
                0x900058a4      0x5f4 build/stm32h7xx_hal_uart.o
                0x900058a4                UART_SetConfig
 .text.UART_AdvFeatureConfig
                0x90005e98       0xc8 build/stm32h7xx_hal_uart.o
                0x90005e98                UART_AdvFeatureConfig
 .text.UART_WaitOnFlagUntilTimeout
                0x90005f60       0xac build/stm32h7xx_hal_uart.o
                0x90005f60                UART_WaitOnFlagUntilTimeout
 .text.HAL_UART_Transmit
                0x9000600c       0xe0 build/stm32h7xx_hal_uart.o
                0x9000600c                HAL_UART_Transmit
 .text.UART_CheckIdleState
                0x900060ec       0x70 build/stm32h7xx_hal_uart.o
                0x900060ec                UART_CheckIdleState
 .text.HAL_UART_Init
                0x9000615c       0x64 build/stm32h7xx_hal_uart.o
                0x9000615c                HAL_UART_Init
 .text.UARTEx_SetNbDataToProcess
                0x900061c0       0x70 build/stm32h7xx_hal_uart_ex.o
 .text.HAL_UARTEx_WakeupCallback
                0x90006230        0x4 build/stm32h7xx_hal_uart_ex.o
                0x90006230                HAL_UARTEx_WakeupCallback
 .text.HAL_UARTEx_RxFifoFullCallback
                0x90006234        0x4 build/stm32h7xx_hal_uart_ex.o
                0x90006234                HAL_UARTEx_RxFifoFullCallback
 .text.HAL_UARTEx_TxFifoEmptyCallback
                0x90006238        0x4 build/stm32h7xx_hal_uart_ex.o
                0x90006238                HAL_UARTEx_TxFifoEmptyCallback
 .text.HAL_UARTEx_EnableFifoMode
                0x9000623c       0x48 build/stm32h7xx_hal_uart_ex.o
                0x9000623c                HAL_UARTEx_EnableFifoMode
 .text.HAL_UARTEx_SetTxFifoThreshold
                0x90006284       0x4c build/stm32h7xx_hal_uart_ex.o
                0x90006284                HAL_UARTEx_SetTxFifoThreshold
 .text.HAL_UARTEx_SetRxFifoThreshold
                0x900062d0       0x4c build/stm32h7xx_hal_uart_ex.o
                0x900062d0                HAL_UARTEx_SetRxFifoThreshold
 .text.OSIdleTaskHook
                0x9000631c       0x10 build/os_cpu_c.o
                0x9000631c                OSIdleTaskHook
 .text.OSInitHook
                0x9000632c       0x38 build/os_cpu_c.o
                0x9000632c                OSInitHook
 .text.OSStatTaskHook
                0x90006364       0x10 build/os_cpu_c.o
                0x90006364                OSStatTaskHook
 .text.OSTaskCreateHook
                0x90006374       0x10 build/os_cpu_c.o
                0x90006374                OSTaskCreateHook
 .text.OSTaskDelHook
                0x90006384       0x10 build/os_cpu_c.o
                0x90006384                OSTaskDelHook
 .text.OSTaskReturnHook
                0x90006394       0x10 build/os_cpu_c.o
                0x90006394                OSTaskReturnHook
 .text.OSTaskStkInit
                0x900063a4      0x1a0 build/os_cpu_c.o
                0x900063a4                OSTaskStkInit
 .text.OSTaskSwHook
                0x90006544       0x50 build/os_cpu_c.o
                0x90006544                OSTaskSwHook
 .text.OSTimeTickHook
                0x90006594       0x10 build/os_cpu_c.o
                0x90006594                OSTimeTickHook
 .text.OS_CPU_SysTickHandler
                0x900065a4       0x1c build/os_cpu_c.o
                0x900065a4                OS_CPU_SysTickHandler
 .text.OSCfg_Init
                0x900065c0        0x4 build/os_cfg_app.o
                0x900065c0                OSCfg_Init
 .text.OS_IdleTask
                0x900065c4       0x1c build/os_core.o
                0x900065c4                OS_IdleTask
 .text.OSIntEnter
                0x900065e0       0x20 build/os_core.o
                0x900065e0                OSIntEnter
 .text.OSIntExit
                0x90006600       0x9c build/os_core.o
                0x90006600                OSIntExit
 .text.OSSched  0x9000669c       0x84 build/os_core.o
                0x9000669c                OSSched
 .text.OSSchedLock
                0x90006720       0x54 build/os_core.o
                0x90006720                OSSchedLock
 .text.OSSchedUnlock
                0x90006774       0x68 build/os_core.o
                0x90006774                OSSchedUnlock
 .text.OSStart  0x900067dc       0x80 build/os_core.o
                0x900067dc                OSStart
 .text.OS_IdleTaskInit
                0x9000685c       0x4c build/os_core.o
                0x9000685c                OS_IdleTaskInit
 .text.OS_PendListInit
                0x900068a8        0x8 build/os_core.o
                0x900068a8                OS_PendListInit
 .text.OS_PendListInsertPrio
                0x900068b0       0x50 build/os_core.o
                0x900068b0                OS_PendListInsertPrio
 .text.OS_PendListRemove
                0x90006900       0x38 build/os_core.o
                0x90006900                OS_PendListRemove
 .text.OS_PendListChangePrio
                0x90006938       0x20 build/os_core.o
                0x90006938                OS_PendListChangePrio
 .text.OS_RdyListInit
                0x90006958       0x20 build/os_core.o
                0x90006958                OS_RdyListInit
 .text.OSInit   0x90006978      0x128 build/os_core.o
                0x90006978                OSInit
 .text.OS_RdyListInsertHead
                0x90006aa0       0x38 build/os_core.o
                0x90006aa0                OS_RdyListInsertHead
 .text.OS_RdyListInsertTail
                0x90006ad8       0x38 build/os_core.o
                0x90006ad8                OS_RdyListInsertTail
 .text.OS_RdyListInsert
                0x90006b10       0x2c build/os_core.o
                0x90006b10                OS_RdyListInsert
 .text.OS_Post  0x90006b3c       0x78 build/os_core.o
                0x90006b3c                OS_Post
 .text.OS_RdyListMoveHeadToTail
                0x90006bb4       0x34 build/os_core.o
                0x90006bb4                OS_RdyListMoveHeadToTail
 .text.OS_RdyListRemove
                0x90006be8       0x50 build/os_core.o
                0x90006be8                OS_RdyListRemove
 .text.OS_SchedRoundRobin
                0x90006c38       0x88 build/os_core.o
                0x90006c38                OS_SchedRoundRobin
 .text.OS_TaskBlock
                0x90006cc0       0x2c build/os_core.o
                0x90006cc0                OS_TaskBlock
 .text.OS_Pend  0x90006cec       0x38 build/os_core.o
                0x90006cec                OS_Pend
 .text.OS_MemInit
                0x90006d24        0x8 build/os_mem.o
                0x90006d24                OS_MemInit
 .text.OS_MsgPoolInit
                0x90006d2c       0x64 build/os_msg.o
                0x90006d2c                OS_MsgPoolInit
 .text.OS_MsgQFreeAll
                0x90006d90       0x34 build/os_msg.o
                0x90006d90                OS_MsgQFreeAll
 .text.OS_MsgQInit
                0x90006dc4        0xc build/os_msg.o
                0x90006dc4                OS_MsgQInit
 .text.OSMutexCreate
                0x90006dd0       0x48 build/os_mutex.o
                0x90006dd0                OSMutexCreate
 .text.OS_MutexGrpAdd
                0x90006e18        0x8 build/os_mutex.o
                0x90006e18                OS_MutexGrpAdd
 .text.OSMutexPend
                0x90006e20      0x164 build/os_mutex.o
                0x90006e20                OSMutexPend
 .text.OS_MutexGrpRemove
                0x90006f84       0x14 build/os_mutex.o
                0x90006f84                OS_MutexGrpRemove
 .text.OS_MutexGrpPrioFindHighest
                0x90006f98       0x20 build/os_mutex.o
                0x90006f98                OS_MutexGrpPrioFindHighest
 .text.OSMutexPost
                0x90006fb8      0x140 build/os_mutex.o
                0x90006fb8                OSMutexPost
 .text.OS_MutexGrpPostAll
                0x900070f8       0x48 build/os_mutex.o
                0x900070f8                OS_MutexGrpPostAll
 .text.OS_PrioInit
                0x90007140       0x18 build/os_prio.o
                0x90007140                OS_PrioInit
 .text.OS_PrioGetHighest
                0x90007158       0x24 build/os_prio.o
                0x90007158                OS_PrioGetHighest
 .text.OS_PrioInsert
                0x9000717c       0x24 build/os_prio.o
                0x9000717c                OS_PrioInsert
 .text.OS_PrioRemove
                0x900071a0       0x24 build/os_prio.o
                0x900071a0                OS_PrioRemove
 .text.OSStatReset
                0x900071c4       0x1c build/os_stat.o
                0x900071c4                OSStatReset
 .text.OS_StatTask
                0x900071e0      0x128 build/os_stat.o
                0x900071e0                OS_StatTask
 .text.OS_StatTaskInit
                0x90007308       0xa4 build/os_stat.o
                0x90007308                OS_StatTaskInit
 .text.OSTaskSemPend
                0x900073ac       0xe8 build/os_task.o
                0x900073ac                OSTaskSemPend
 .text.OSTaskSemPost
                0x90007494       0xe4 build/os_task.o
                0x90007494                OSTaskSemPost
 .text.OS_TaskInit
                0x90007578       0x18 build/os_task.o
                0x90007578                OS_TaskInit
 .text.OS_TaskInitTCB
                0x90007590       0xa8 build/os_task.o
                0x90007590                OS_TaskInitTCB
 .text.OSTaskCreate
                0x90007638      0x188 build/os_task.o
                0x90007638                OSTaskCreate
 .text.OS_TaskChangePrio
                0x900077c0       0xc4 build/os_task.o
                0x900077c0                OS_TaskChangePrio
 .text.OSTaskDel
                0x90007884      0x150 build/os_task.o
                0x90007884                OSTaskDel
 .text.OS_TaskReturn
                0x900079d4       0x20 build/os_task.o
                0x900079d4                OS_TaskReturn
 .text.OSTimeDly
                0x900079f4       0x9c build/os_time.o
                0x900079f4                OSTimeDly
 .text.OSTimeTick
                0x90007a90       0x6c build/os_time.o
                0x90007a90                OSTimeTick
 .text.OS_TickListUpdateDly
                0x90007afc       0x6c build/os_tick.o
 .text.OS_TickListUpdateTimeout
                0x90007b68       0xcc build/os_tick.o
 .text.OS_TickTask
                0x90007c34       0x48 build/os_tick.o
                0x90007c34                OS_TickTask
 .text.OS_TickTaskInit
                0x90007c7c       0x94 build/os_tick.o
                0x90007c7c                OS_TickTaskInit
 .text.OS_TickListInsert
                0x90007d10       0x64 build/os_tick.o
                0x90007d10                OS_TickListInsert
 .text.OS_TickListInsertDly
                0x90007d74       0x80 build/os_tick.o
                0x90007d74                OS_TickListInsertDly
 .text.OS_TickListRemove
                0x90007df4       0x48 build/os_tick.o
                0x90007df4                OS_TickListRemove
 .text.OS_TmrLock
                0x90007e3c       0x24 build/os_tmr.o
 .text.OS_TmrUnlock
                0x90007e60       0x1c build/os_tmr.o
 .text.OS_TmrInit
                0x90007e7c       0xe4 build/os_tmr.o
                0x90007e7c                OS_TmrInit
 .text.OS_TmrUnlink
                0x90007f60       0x34 build/os_tmr.o
                0x90007f60                OS_TmrUnlink
 .text.OS_TmrTask
                0x90007f94       0x7c build/os_tmr.o
                0x90007f94                OS_TmrTask
 .text._Z41__static_initialization_and_destruction_0ii
                0x90008010       0x30 build/app.o
 .text.Error_Handler
                0x90008040        0x4 build/app.o
                0x90008040                Error_Handler
 .text._ZL21my_SystemClock_Configv
                0x90008044       0xc4 build/app.o
 .text.main     0x90008108       0xa4 build/app.o
                0x90008108                main
 .text._GLOBAL__sub_I_Yuki
                0x900081ac       0x10 build/app.o
 .text._Z7My_TaskPv
                0x900081bc       0x30 build/app_task.o
                0x900081bc                My_Task(void*)
 .text._Z10Start_TaskPv
                0x900081ec       0x5c build/app_task.o
                0x900081ec                Start_Task(void*)
 .text._ZN11User_Uart_T15m_start_receiveEv
                0x90008248       0xa0 build/bsp_uart.o
                0x90008248                User_Uart_T::m_start_receive()
 .text._ZN11User_Uart_TC2Ev
                0x900082e8        0x4 build/bsp_uart.o
                0x900082e8                User_Uart_T::User_Uart_T()
                0x900082e8                User_Uart_T::User_Uart_T()
 .text._ZN11User_Uart_TD2Ev
                0x900082ec        0x4 build/bsp_uart.o
                0x900082ec                User_Uart_T::~User_Uart_T()
                0x900082ec                User_Uart_T::~User_Uart_T()
 .text._ZN11User_Uart_T4initEv
                0x900082f0       0x24 build/bsp_uart.o
                0x900082f0                User_Uart_T::init()
 .text._ZN11User_Uart_T11send_stringEPKc
                0x90008314       0x30 build/bsp_uart.o
                0x90008314                User_Uart_T::send_string(char const*)
 .text._ZN11User_Uart_T12m_send_NcharEPhm
                0x90008344       0xcc build/bsp_uart.o
                0x90008344                User_Uart_T::m_send_Nchar(unsigned char*, unsigned long)
 .text._ZN11User_Uart_T11send_stringEPh
                0x90008410       0xe8 build/bsp_uart.o
                0x90008410                User_Uart_T::send_string(unsigned char*)
 .text._ZN11User_Uart_T6printfEPKcz
                0x900084f8      0x130 build/bsp_uart.o
                0x900084f8                User_Uart_T::printf(char const*, ...)
 .text.Reset_Handler
                0x90008628       0x50 build/startup_stm32h750xx.o
                0x90008628                Reset_Handler
 .text.Default_Handler
                0x90008678        0x2 build/startup_stm32h750xx.o
                0x90008678                RTC_Alarm_IRQHandler
                0x90008678                HASH_RNG_IRQHandler
                0x90008678                EXTI2_IRQHandler
                0x90008678                TIM8_CC_IRQHandler
                0x90008678                HRTIM1_Master_IRQHandler
                0x90008678                UART8_IRQHandler
                0x90008678                SPI4_IRQHandler
                0x90008678                TIM1_CC_IRQHandler
                0x90008678                BDMA_Channel6_IRQHandler
                0x90008678                DMA2_Stream5_IRQHandler
                0x90008678                HRTIM1_FLT_IRQHandler
                0x90008678                JPEG_IRQHandler
                0x90008678                DMA1_Stream5_IRQHandler
                0x90008678                BDMA_Channel1_IRQHandler
                0x90008678                HRTIM1_TIMD_IRQHandler
                0x90008678                TAMP_STAMP_IRQHandler
                0x90008678                EXTI3_IRQHandler
                0x90008678                LPTIM4_IRQHandler
                0x90008678                TIM8_TRG_COM_TIM14_IRQHandler
                0x90008678                LPTIM2_IRQHandler
                0x90008678                DFSDM1_FLT1_IRQHandler
                0x90008678                DMAMUX2_OVR_IRQHandler
                0x90008678                TIM8_UP_TIM13_IRQHandler
                0x90008678                I2C3_ER_IRQHandler
                0x90008678                DFSDM1_FLT2_IRQHandler
                0x90008678                MDMA_IRQHandler
                0x90008678                LPTIM3_IRQHandler
                0x90008678                HSEM1_IRQHandler
                0x90008678                EXTI0_IRQHandler
                0x90008678                I2C2_EV_IRQHandler
                0x90008678                DMA1_Stream2_IRQHandler
                0x90008678                FPU_IRQHandler
                0x90008678                OTG_HS_WKUP_IRQHandler
                0x90008678                FDCAN1_IT1_IRQHandler
                0x90008678                LTDC_ER_IRQHandler
                0x90008678                DMA2_Stream2_IRQHandler
                0x90008678                HRTIM1_TIME_IRQHandler
                0x90008678                SPI1_IRQHandler
                0x90008678                TIM6_DAC_IRQHandler
                0x90008678                DCMI_IRQHandler
                0x90008678                HRTIM1_TIMC_IRQHandler
                0x90008678                DMA2_Stream3_IRQHandler
                0x90008678                SAI2_IRQHandler
                0x90008678                DFSDM1_FLT3_IRQHandler
                0x90008678                USART6_IRQHandler
                0x90008678                TIM17_IRQHandler
                0x90008678                USART3_IRQHandler
                0x90008678                BDMA_Channel7_IRQHandler
                0x90008678                CRYP_IRQHandler
                0x90008678                LPTIM5_IRQHandler
                0x90008678                UART5_IRQHandler
                0x90008678                ADC3_IRQHandler
                0x90008678                DMA2_Stream0_IRQHandler
                0x90008678                TIM4_IRQHandler
                0x90008678                BDMA_Channel2_IRQHandler
                0x90008678                QUADSPI_IRQHandler
                0x90008678                I2C1_EV_IRQHandler
                0x90008678                DMA1_Stream6_IRQHandler
                0x90008678                DMAMUX1_OVR_IRQHandler
                0x90008678                TIM16_IRQHandler
                0x90008678                BDMA_Channel5_IRQHandler
                0x90008678                TIM3_IRQHandler
                0x90008678                RCC_IRQHandler
                0x90008678                TIM8_BRK_TIM12_IRQHandler
                0x90008678                TIM1_TRG_COM_IRQHandler
                0x90008678                Default_Handler
                0x90008678                ECC_IRQHandler
                0x90008678                CEC_IRQHandler
                0x90008678                EXTI15_10_IRQHandler
                0x90008678                BDMA_Channel0_IRQHandler
                0x90008678                ADC_IRQHandler
                0x90008678                DMA1_Stream7_IRQHandler
                0x90008678                HRTIM1_TIMA_IRQHandler
                0x90008678                SPI5_IRQHandler
                0x90008678                TIM7_IRQHandler
                0x90008678                SDMMC1_IRQHandler
                0x90008678                TIM5_IRQHandler
                0x90008678                DMA2_Stream7_IRQHandler
                0x90008678                TIM15_IRQHandler
                0x90008678                PVD_AVD_IRQHandler
                0x90008678                I2C3_EV_IRQHandler
                0x90008678                EXTI9_5_IRQHandler
                0x90008678                RTC_WKUP_IRQHandler
                0x90008678                LTDC_IRQHandler
                0x90008678                SAI3_IRQHandler
                0x90008678                ETH_WKUP_IRQHandler
                0x90008678                SPDIF_RX_IRQHandler
                0x90008678                SPI2_IRQHandler
                0x90008678                OTG_HS_EP1_IN_IRQHandler
                0x90008678                CRS_IRQHandler
                0x90008678                EXTI4_IRQHandler
                0x90008678                HRTIM1_TIMB_IRQHandler
                0x90008678                FDCAN2_IT1_IRQHandler
                0x90008678                ETH_IRQHandler
                0x90008678                TIM1_UP_IRQHandler
                0x90008678                BDMA_Channel4_IRQHandler
                0x90008678                OTG_HS_EP1_OUT_IRQHandler
                0x90008678                WWDG_IRQHandler
                0x90008678                SPI6_IRQHandler
                0x90008678                MDIOS_IRQHandler
                0x90008678                I2C4_EV_IRQHandler
                0x90008678                FDCAN2_IT0_IRQHandler
                0x90008678                LPUART1_IRQHandler
                0x90008678                FDCAN1_IT0_IRQHandler
                0x90008678                TIM2_IRQHandler
                0x90008678                OTG_FS_WKUP_IRQHandler
                0x90008678                OTG_HS_IRQHandler
                0x90008678                DMA2D_IRQHandler
                0x90008678                TIM1_BRK_IRQHandler
                0x90008678                EXTI1_IRQHandler
                0x90008678                SDMMC2_IRQHandler
                0x90008678                OTG_FS_EP1_OUT_IRQHandler
                0x90008678                BDMA_Channel3_IRQHandler
                0x90008678                UART7_IRQHandler
                0x90008678                MDIOS_WKUP_IRQHandler
                0x90008678                USART2_IRQHandler
                0x90008678                DFSDM1_FLT0_IRQHandler
                0x90008678                SAI4_IRQHandler
                0x90008678                I2C2_ER_IRQHandler
                0x90008678                DMA2_Stream1_IRQHandler
                0x90008678                FLASH_IRQHandler
                0x90008678                DMA2_Stream4_IRQHandler
                0x90008678                USART1_IRQHandler
                0x90008678                OTG_FS_IRQHandler
                0x90008678                SPI3_IRQHandler
                0x90008678                WAKEUP_PIN_IRQHandler
                0x90008678                DMA1_Stream4_IRQHandler
                0x90008678                OTG_FS_EP1_IN_IRQHandler
                0x90008678                I2C1_ER_IRQHandler
                0x90008678                FMC_IRQHandler
                0x90008678                FDCAN_CAL_IRQHandler
                0x90008678                SWPMI1_IRQHandler
                0x90008678                COMP1_IRQHandler
                0x90008678                LPTIM1_IRQHandler
                0x90008678                I2C4_ER_IRQHandler
                0x90008678                DMA2_Stream6_IRQHandler
                0x90008678                SAI1_IRQHandler
                0x90008678                DMA1_Stream3_IRQHandler
 *fill*         0x9000867a        0x2 
 .text.__aeabi_atexit
                0x9000867c        0xc i:/mcu/gnu_tools_arm/bin/../lib/gcc/arm-none-eabi/5.4.1/../../../../arm-none-eabi/lib/armv7e-m/fpu/fpv5-d16\libc.a(lib_a-aeabi_atexit.o)
                0x9000867c                __aeabi_atexit
 .text.__cxa_atexit
                0x90008688        0xc i:/mcu/gnu_tools_arm/bin/../lib/gcc/arm-none-eabi/5.4.1/../../../../arm-none-eabi/lib/armv7e-m/fpu/fpv5-d16\libc.a(lib_a-cxa_atexit.o)
                0x90008688                __cxa_atexit
 .text.__libc_init_array
                0x90008694       0x50 i:/mcu/gnu_tools_arm/bin/../lib/gcc/arm-none-eabi/5.4.1/../../../../arm-none-eabi/lib/armv7e-m/fpu/fpv5-d16\libc.a(lib_a-init.o)
                0x90008694                __libc_init_array
 .text.memset   0x900086e4       0x9c i:/mcu/gnu_tools_arm/bin/../lib/gcc/arm-none-eabi/5.4.1/../../../../arm-none-eabi/lib/armv7e-m/fpu/fpv5-d16\libc.a(lib_a-memset.o)
                0x900086e4                memset
 .text.sprintf  0x90008780       0x4c i:/mcu/gnu_tools_arm/bin/../lib/gcc/arm-none-eabi/5.4.1/../../../../arm-none-eabi/lib/armv7e-m/fpu/fpv5-d16\libc.a(lib_a-sprintf.o)
                0x90008780                sprintf
 *fill*         0x900087cc        0x4 
 .text._svfprintf_r
                0x900087d0     0x1570 i:/mcu/gnu_tools_arm/bin/../lib/gcc/arm-none-eabi/5.4.1/../../../../arm-none-eabi/lib/armv7e-m/fpu/fpv5-d16\libc.a(lib_a-svfprintf.o)
                0x900087d0                _svfprintf_r
 .text.__register_exitproc
                0x90009d40       0xa4 i:/mcu/gnu_tools_arm/bin/../lib/gcc/arm-none-eabi/5.4.1/../../../../arm-none-eabi/lib/armv7e-m/fpu/fpv5-d16\libc.a(lib_a-__atexit.o)
                0x90009d40                __register_exitproc
 .text.startup.register_fini
                0x90009de4       0x14 i:/mcu/gnu_tools_arm/bin/../lib/gcc/arm-none-eabi/5.4.1/../../../../arm-none-eabi/lib/armv7e-m/fpu/fpv5-d16\libc.a(lib_a-__call_atexit.o)
 .text.atexit   0x90009df8        0xc i:/mcu/gnu_tools_arm/bin/../lib/gcc/arm-none-eabi/5.4.1/../../../../arm-none-eabi/lib/armv7e-m/fpu/fpv5-d16\libc.a(lib_a-atexit.o)
                0x90009df8                atexit
 .text.quorem   0x90009e04      0x128 i:/mcu/gnu_tools_arm/bin/../lib/gcc/arm-none-eabi/5.4.1/../../../../arm-none-eabi/lib/armv7e-m/fpu/fpv5-d16\libc.a(lib_a-dtoa.o)
 *fill*         0x90009f2c        0x4 
 .text._dtoa_r  0x90009f30      0xc84 i:/mcu/gnu_tools_arm/bin/../lib/gcc/arm-none-eabi/5.4.1/../../../../arm-none-eabi/lib/armv7e-m/fpu/fpv5-d16\libc.a(lib_a-dtoa.o)
                0x90009f30                _dtoa_r
 .text.__libc_fini_array
                0x9000abb4       0x28 i:/mcu/gnu_tools_arm/bin/../lib/gcc/arm-none-eabi/5.4.1/../../../../arm-none-eabi/lib/armv7e-m/fpu/fpv5-d16\libc.a(lib_a-fini.o)
                0x9000abb4                __libc_fini_array
 .text._localeconv_r
                0x9000abdc       0x1c i:/mcu/gnu_tools_arm/bin/../lib/gcc/arm-none-eabi/5.4.1/../../../../arm-none-eabi/lib/armv7e-m/fpu/fpv5-d16\libc.a(lib_a-localeconv.o)
                0x9000abdc                _localeconv_r
 .text._malloc_r
                0x9000abf8      0x570 i:/mcu/gnu_tools_arm/bin/../lib/gcc/arm-none-eabi/5.4.1/../../../../arm-none-eabi/lib/armv7e-m/fpu/fpv5-d16\libc.a(lib_a-mallocr.o)
                0x9000abf8                _malloc_r
 .text.__malloc_lock
                0x9000b168        0x4 i:/mcu/gnu_tools_arm/bin/../lib/gcc/arm-none-eabi/5.4.1/../../../../arm-none-eabi/lib/armv7e-m/fpu/fpv5-d16\libc.a(lib_a-mlock.o)
                0x9000b168                __malloc_lock
 .text.__malloc_unlock
                0x9000b16c        0x4 i:/mcu/gnu_tools_arm/bin/../lib/gcc/arm-none-eabi/5.4.1/../../../../arm-none-eabi/lib/armv7e-m/fpu/fpv5-d16\libc.a(lib_a-mlock.o)
                0x9000b16c                __malloc_unlock
 .text._Balloc  0x9000b170       0x4c i:/mcu/gnu_tools_arm/bin/../lib/gcc/arm-none-eabi/5.4.1/../../../../arm-none-eabi/lib/armv7e-m/fpu/fpv5-d16\libc.a(lib_a-mprec.o)
                0x9000b170                _Balloc
 .text._Bfree   0x9000b1bc       0x14 i:/mcu/gnu_tools_arm/bin/../lib/gcc/arm-none-eabi/5.4.1/../../../../arm-none-eabi/lib/armv7e-m/fpu/fpv5-d16\libc.a(lib_a-mprec.o)
                0x9000b1bc                _Bfree
 .text.__multadd
                0x9000b1d0       0x80 i:/mcu/gnu_tools_arm/bin/../lib/gcc/arm-none-eabi/5.4.1/../../../../arm-none-eabi/lib/armv7e-m/fpu/fpv5-d16\libc.a(lib_a-mprec.o)
                0x9000b1d0                __multadd
 .text.__hi0bits
                0x9000b250       0x40 i:/mcu/gnu_tools_arm/bin/../lib/gcc/arm-none-eabi/5.4.1/../../../../arm-none-eabi/lib/armv7e-m/fpu/fpv5-d16\libc.a(lib_a-mprec.o)
                0x9000b250                __hi0bits
 .text.__lo0bits
                0x9000b290       0x5c i:/mcu/gnu_tools_arm/bin/../lib/gcc/arm-none-eabi/5.4.1/../../../../arm-none-eabi/lib/armv7e-m/fpu/fpv5-d16\libc.a(lib_a-mprec.o)
                0x9000b290                __lo0bits
 .text.__i2b    0x9000b2ec       0x14 i:/mcu/gnu_tools_arm/bin/../lib/gcc/arm-none-eabi/5.4.1/../../../../arm-none-eabi/lib/armv7e-m/fpu/fpv5-d16\libc.a(lib_a-mprec.o)
                0x9000b2ec                __i2b
 .text.__multiply
                0x9000b300      0x130 i:/mcu/gnu_tools_arm/bin/../lib/gcc/arm-none-eabi/5.4.1/../../../../arm-none-eabi/lib/armv7e-m/fpu/fpv5-d16\libc.a(lib_a-mprec.o)
                0x9000b300                __multiply
 .text.__pow5mult
                0x9000b430       0xa0 i:/mcu/gnu_tools_arm/bin/../lib/gcc/arm-none-eabi/5.4.1/../../../../arm-none-eabi/lib/armv7e-m/fpu/fpv5-d16\libc.a(lib_a-mprec.o)
                0x9000b430                __pow5mult
 .text.__lshift
                0x9000b4d0       0xb0 i:/mcu/gnu_tools_arm/bin/../lib/gcc/arm-none-eabi/5.4.1/../../../../arm-none-eabi/lib/armv7e-m/fpu/fpv5-d16\libc.a(lib_a-mprec.o)
                0x9000b4d0                __lshift
 .text.__mcmp   0x9000b580       0x44 i:/mcu/gnu_tools_arm/bin/../lib/gcc/arm-none-eabi/5.4.1/../../../../arm-none-eabi/lib/armv7e-m/fpu/fpv5-d16\libc.a(lib_a-mprec.o)
                0x9000b580                __mcmp
 .text.__mdiff  0x9000b5c4      0x114 i:/mcu/gnu_tools_arm/bin/../lib/gcc/arm-none-eabi/5.4.1/../../../../arm-none-eabi/lib/armv7e-m/fpu/fpv5-d16\libc.a(lib_a-mprec.o)
                0x9000b5c4                __mdiff
 .text.__d2b    0x9000b6d8       0xbc i:/mcu/gnu_tools_arm/bin/../lib/gcc/arm-none-eabi/5.4.1/../../../../arm-none-eabi/lib/armv7e-m/fpu/fpv5-d16\libc.a(lib_a-mprec.o)
                0x9000b6d8                __d2b
 .text._sbrk_r  0x9000b794       0x24 i:/mcu/gnu_tools_arm/bin/../lib/gcc/arm-none-eabi/5.4.1/../../../../arm-none-eabi/lib/armv7e-m/fpu/fpv5-d16\libc.a(lib_a-sbrkr.o)
                0x9000b794                _sbrk_r
 .text.__ssprint_r
                0x9000b7b8      0x100 i:/mcu/gnu_tools_arm/bin/../lib/gcc/arm-none-eabi/5.4.1/../../../../arm-none-eabi/lib/armv7e-m/fpu/fpv5-d16\libc.a(lib_a-svfiprintf.o)
                0x9000b7b8                __ssprint_r
 .text._calloc_r
                0x9000b8b8       0x60 i:/mcu/gnu_tools_arm/bin/../lib/gcc/arm-none-eabi/5.4.1/../../../../arm-none-eabi/lib/armv7e-m/fpu/fpv5-d16\libc.a(lib_a-callocr.o)
                0x9000b8b8                _calloc_r
 .text._malloc_trim_r
                0x9000b918       0x9c i:/mcu/gnu_tools_arm/bin/../lib/gcc/arm-none-eabi/5.4.1/../../../../arm-none-eabi/lib/armv7e-m/fpu/fpv5-d16\libc.a(lib_a-freer.o)
                0x9000b918                _malloc_trim_r
 .text._free_r  0x9000b9b4      0x1d0 i:/mcu/gnu_tools_arm/bin/../lib/gcc/arm-none-eabi/5.4.1/../../../../arm-none-eabi/lib/armv7e-m/fpu/fpv5-d16\libc.a(lib_a-freer.o)
                0x9000b9b4                _free_r
 .text.__ascii_mbtowc
                0x9000bb84       0x2c i:/mcu/gnu_tools_arm/bin/../lib/gcc/arm-none-eabi/5.4.1/../../../../arm-none-eabi/lib/armv7e-m/fpu/fpv5-d16\libc.a(lib_a-mbtowc_r.o)
                0x9000bb84                __ascii_mbtowc
 .text.memmove  0x9000bbb0       0xc8 i:/mcu/gnu_tools_arm/bin/../lib/gcc/arm-none-eabi/5.4.1/../../../../arm-none-eabi/lib/armv7e-m/fpu/fpv5-d16\libc.a(lib_a-memmove.o)
                0x9000bbb0                memmove
 .text._realloc_r
                0x9000bc78      0x3e0 i:/mcu/gnu_tools_arm/bin/../lib/gcc/arm-none-eabi/5.4.1/../../../../arm-none-eabi/lib/armv7e-m/fpu/fpv5-d16\libc.a(lib_a-reallocr.o)
                0x9000bc78                _realloc_r
 .text.__ascii_wctomb
                0x9000c058       0x1c i:/mcu/gnu_tools_arm/bin/../lib/gcc/arm-none-eabi/5.4.1/../../../../arm-none-eabi/lib/armv7e-m/fpu/fpv5-d16\libc.a(lib_a-wctomb_r.o)
                0x9000c058                __ascii_wctomb
 .text._sbrk    0x9000c074       0x1c i:/mcu/gnu_tools_arm/bin/../lib/gcc/arm-none-eabi/5.4.1/../../../../arm-none-eabi/lib/armv7e-m/fpu/fpv5-d16\libnosys.a(sbrk.o)
                0x9000c074                _sbrk
 .text._exit    0x9000c090        0x4 i:/mcu/gnu_tools_arm/bin/../lib/gcc/arm-none-eabi/5.4.1/../../../../arm-none-eabi/lib/armv7e-m/fpu/fpv5-d16\libnosys.a(_exit.o)
                0x9000c090                _exit
 .text.abort    0x9000c094       0x10 i:/mcu/gnu_tools_arm/bin/../lib/gcc/arm-none-eabi/5.4.1/../../../../arm-none-eabi/lib/armv7e-m/fpu/fpv5-d16\libc.a(lib_a-abort.o)
                0x9000c094                abort
 .text._raise_r
                0x9000c0a4       0x58 i:/mcu/gnu_tools_arm/bin/../lib/gcc/arm-none-eabi/5.4.1/../../../../arm-none-eabi/lib/armv7e-m/fpu/fpv5-d16\libc.a(lib_a-signal.o)
                0x9000c0a4                _raise_r
 .text.raise    0x9000c0fc       0x10 i:/mcu/gnu_tools_arm/bin/../lib/gcc/arm-none-eabi/5.4.1/../../../../arm-none-eabi/lib/armv7e-m/fpu/fpv5-d16\libc.a(lib_a-signal.o)
                0x9000c0fc                raise
 .text._kill_r  0x9000c10c       0x28 i:/mcu/gnu_tools_arm/bin/../lib/gcc/arm-none-eabi/5.4.1/../../../../arm-none-eabi/lib/armv7e-m/fpu/fpv5-d16\libc.a(lib_a-signalr.o)
                0x9000c10c                _kill_r
 .text._getpid_r
                0x9000c134        0x4 i:/mcu/gnu_tools_arm/bin/../lib/gcc/arm-none-eabi/5.4.1/../../../../arm-none-eabi/lib/armv7e-m/fpu/fpv5-d16\libc.a(lib_a-signalr.o)
                0x9000c134                _getpid_r
 .text._getpid  0x9000c138       0x10 i:/mcu/gnu_tools_arm/bin/../lib/gcc/arm-none-eabi/5.4.1/../../../../arm-none-eabi/lib/armv7e-m/fpu/fpv5-d16\libnosys.a(getpid.o)
                0x9000c138                _getpid
 .text._kill    0x9000c148       0x10 i:/mcu/gnu_tools_arm/bin/../lib/gcc/arm-none-eabi/5.4.1/../../../../arm-none-eabi/lib/armv7e-m/fpu/fpv5-d16\libnosys.a(kill.o)
                0x9000c148                _kill
 *(.glue_7)
 .glue_7        0x9000c158        0x0 linker stubs
 *(.glue_7t)
 .glue_7t       0x9000c158        0x0 linker stubs
 *(.eh_frame)
 .eh_frame      0x9000c158        0x0 i:/mcu/gnu_tools_arm/bin/../lib/gcc/arm-none-eabi/5.4.1/armv7e-m/fpu/fpv5-d16/crtbegin.o
 *(.init)
 .init          0x9000c158        0x4 i:/mcu/gnu_tools_arm/bin/../lib/gcc/arm-none-eabi/5.4.1/armv7e-m/fpu/fpv5-d16/crti.o
                0x9000c158                _init
 .init          0x9000c15c        0x8 i:/mcu/gnu_tools_arm/bin/../lib/gcc/arm-none-eabi/5.4.1/armv7e-m/fpu/fpv5-d16/crtn.o
 *(.fini)
 .fini          0x9000c164        0x4 i:/mcu/gnu_tools_arm/bin/../lib/gcc/arm-none-eabi/5.4.1/armv7e-m/fpu/fpv5-d16/crti.o
                0x9000c164                _fini
 .fini          0x9000c168        0x8 i:/mcu/gnu_tools_arm/bin/../lib/gcc/arm-none-eabi/5.4.1/armv7e-m/fpu/fpv5-d16/crtn.o
                0x9000c170                . = ALIGN (0x4)
                0x9000c170                _etext = .

.vfp11_veneer   0x9000c170        0x0
 .vfp11_veneer  0x9000c170        0x0 linker stubs

.v4_bx          0x9000c170        0x0
 .v4_bx         0x9000c170        0x0 linker stubs

.iplt           0x9000c170        0x0
 .iplt          0x9000c170        0x0 i:/mcu/gnu_tools_arm/bin/../lib/gcc/arm-none-eabi/5.4.1/armv7e-m/fpu/fpv5-d16/crtbegin.o

.rodata         0x9000c170      0x3a8
                0x9000c170                . = ALIGN (0x4)
 *(.rodata)
 .rodata        0x9000c170       0x10 build/stm32h7xx_hal_uart_ex.o
 *(.rodata*)
 .rodata.flagBitshiftOffset.9018
                0x9000c180        0x8 build/stm32h7xx_hal_dma.o
 .rodata.D1CorePrescTable
                0x9000c188       0x10 build/system_stm32h7xx.o
                0x9000c188                D1CorePrescTable
 .rodata.UARTPrescTable
                0x9000c198       0x18 build/stm32h7xx_hal_uart.o
                0x9000c198                UARTPrescTable
 .rodata.OSCfg_IdleTaskStkLimit
                0x9000c1b0        0x4 build/os_cfg_app.o
                0x9000c1b0                OSCfg_IdleTaskStkLimit
 .rodata.OSCfg_TickTaskStkBasePtr
                0x9000c1b4        0x4 build/os_cfg_app.o
                0x9000c1b4                OSCfg_TickTaskStkBasePtr
 .rodata.OSCfg_TmrTaskStkBasePtr
                0x9000c1b8        0x4 build/os_cfg_app.o
                0x9000c1b8                OSCfg_TmrTaskStkBasePtr
 .rodata.OSCfg_TickTaskStkLimit
                0x9000c1bc        0x4 build/os_cfg_app.o
                0x9000c1bc                OSCfg_TickTaskStkLimit
 .rodata.OSCfg_ISRStkSize
                0x9000c1c0        0x4 build/os_cfg_app.o
                0x9000c1c0                OSCfg_ISRStkSize
 .rodata.OSCfg_TmrTaskRate_Hz
                0x9000c1c4        0x4 build/os_cfg_app.o
                0x9000c1c4                OSCfg_TmrTaskRate_Hz
 .rodata.OSCfg_TmrTaskStkLimit
                0x9000c1c8        0x4 build/os_cfg_app.o
                0x9000c1c8                OSCfg_TmrTaskStkLimit
 .rodata.OSCfg_ISRStkBasePtr
                0x9000c1cc        0x4 build/os_cfg_app.o
                0x9000c1cc                OSCfg_ISRStkBasePtr
 .rodata.OSCfg_TmrTaskStkSize
                0x9000c1d0        0x4 build/os_cfg_app.o
                0x9000c1d0                OSCfg_TmrTaskStkSize
 .rodata.OSCfg_TickRate_Hz
                0x9000c1d4        0x4 build/os_cfg_app.o
                0x9000c1d4                OSCfg_TickRate_Hz
 .rodata.OSCfg_IdleTaskStkSize
                0x9000c1d8        0x4 build/os_cfg_app.o
                0x9000c1d8                OSCfg_IdleTaskStkSize
 .rodata.OSCfg_MsgPoolSize
                0x9000c1dc        0x2 build/os_cfg_app.o
                0x9000c1dc                OSCfg_MsgPoolSize
 *fill*         0x9000c1de        0x2 
 .rodata.OSCfg_MsgPoolBasePtr
                0x9000c1e0        0x4 build/os_cfg_app.o
                0x9000c1e0                OSCfg_MsgPoolBasePtr
 .rodata.OSCfg_IdleTaskStkBasePtr
                0x9000c1e4        0x4 build/os_cfg_app.o
                0x9000c1e4                OSCfg_IdleTaskStkBasePtr
 .rodata.OSCfg_StatTaskPrio
                0x9000c1e8        0x1 build/os_cfg_app.o
                0x9000c1e8                OSCfg_StatTaskPrio
 *fill*         0x9000c1e9        0x3 
 .rodata.OSCfg_TickTaskStkSize
                0x9000c1ec        0x4 build/os_cfg_app.o
                0x9000c1ec                OSCfg_TickTaskStkSize
 .rodata.OSCfg_StatTaskStkBasePtr
                0x9000c1f0        0x4 build/os_cfg_app.o
                0x9000c1f0                OSCfg_StatTaskStkBasePtr
 .rodata.OSCfg_StatTaskRate_Hz
                0x9000c1f4        0x4 build/os_cfg_app.o
                0x9000c1f4                OSCfg_StatTaskRate_Hz
 .rodata.OSCfg_TmrTaskPrio
                0x9000c1f8        0x1 build/os_cfg_app.o
                0x9000c1f8                OSCfg_TmrTaskPrio
 *fill*         0x9000c1f9        0x3 
 .rodata.OSCfg_StkSizeMin
                0x9000c1fc        0x4 build/os_cfg_app.o
                0x9000c1fc                OSCfg_StkSizeMin
 .rodata.OSCfg_StatTaskStkLimit
                0x9000c200        0x4 build/os_cfg_app.o
                0x9000c200                OSCfg_StatTaskStkLimit
 .rodata.OSCfg_TickTaskPrio
                0x9000c204        0x1 build/os_cfg_app.o
                0x9000c204                OSCfg_TickTaskPrio
 *fill*         0x9000c205        0x3 
 .rodata.OSCfg_StatTaskStkSize
                0x9000c208        0x4 build/os_cfg_app.o
                0x9000c208                OSCfg_StatTaskStkSize
 .rodata.str1.4
                0x9000c20c        0x8 build/app.o
 .rodata.str1.4
                0x9000c214       0x20 build/app_task.o
 .rodata.str1.4
                0x9000c234       0x55 build/bsp_uart.o
 *fill*         0x9000c289        0x3 
 .rodata._global_impure_ptr
                0x9000c28c        0x4 i:/mcu/gnu_tools_arm/bin/../lib/gcc/arm-none-eabi/5.4.1/../../../../arm-none-eabi/lib/armv7e-m/fpu/fpv5-d16\libc.a(lib_a-impure.o)
                0x9000c28c                _global_impure_ptr
 .rodata.zeroes.7258
                0x9000c290       0x10 i:/mcu/gnu_tools_arm/bin/../lib/gcc/arm-none-eabi/5.4.1/../../../../arm-none-eabi/lib/armv7e-m/fpu/fpv5-d16\libc.a(lib_a-svfprintf.o)
 .rodata.str1.4
                0x9000c2a0       0x42 i:/mcu/gnu_tools_arm/bin/../lib/gcc/arm-none-eabi/5.4.1/../../../../arm-none-eabi/lib/armv7e-m/fpu/fpv5-d16\libc.a(lib_a-svfprintf.o)
 *fill*         0x9000c2e2        0x2 
 .rodata.blanks.7257
                0x9000c2e4       0x10 i:/mcu/gnu_tools_arm/bin/../lib/gcc/arm-none-eabi/5.4.1/../../../../arm-none-eabi/lib/armv7e-m/fpu/fpv5-d16\libc.a(lib_a-svfprintf.o)
 .rodata.str1.4
                0x9000c2f4       0x10 i:/mcu/gnu_tools_arm/bin/../lib/gcc/arm-none-eabi/5.4.1/../../../../arm-none-eabi/lib/armv7e-m/fpu/fpv5-d16\libc.a(lib_a-dtoa.o)
                                 0x12 (size before relaxing)
 *fill*         0x9000c304        0x4 
 .rodata.__mprec_tens
                0x9000c308       0xc8 i:/mcu/gnu_tools_arm/bin/../lib/gcc/arm-none-eabi/5.4.1/../../../../arm-none-eabi/lib/armv7e-m/fpu/fpv5-d16\libc.a(lib_a-mprec.o)
                0x9000c308                __mprec_tens
 .rodata.__mprec_bigtens
                0x9000c3d0       0x28 i:/mcu/gnu_tools_arm/bin/../lib/gcc/arm-none-eabi/5.4.1/../../../../arm-none-eabi/lib/armv7e-m/fpu/fpv5-d16\libc.a(lib_a-mprec.o)
                0x9000c3d0                __mprec_bigtens
 .rodata.p05.6087
                0x9000c3f8        0xc i:/mcu/gnu_tools_arm/bin/../lib/gcc/arm-none-eabi/5.4.1/../../../../arm-none-eabi/lib/armv7e-m/fpu/fpv5-d16\libc.a(lib_a-mprec.o)
 .rodata.str1.4
                0x9000c404       0x10 i:/mcu/gnu_tools_arm/bin/../lib/gcc/arm-none-eabi/5.4.1/../../../../arm-none-eabi/lib/armv7e-m/fpu/fpv5-d16\libc.a(lib_a-locale.o)
                                 0x12 (size before relaxing)
 .rodata._ctype_
                0x9000c414      0x101 i:/mcu/gnu_tools_arm/bin/../lib/gcc/arm-none-eabi/5.4.1/../../../../arm-none-eabi/lib/armv7e-m/fpu/fpv5-d16\libc.a(lib_a-ctype_.o)
                0x9000c414                _ctype_
                0x9000c518                . = ALIGN (0x4)
 *fill*         0x9000c515        0x3 

.ARM.extab      0x9000c518       0x3c
 *(.ARM.extab* .gnu.linkonce.armextab.*)
 .ARM.extab.text._ZN11User_Uart_T15m_start_receiveEv
                0x9000c518        0xc build/bsp_uart.o
 .ARM.extab.text._ZN11User_Uart_T11send_stringEPKc
                0x9000c524        0xc build/bsp_uart.o
 .ARM.extab.text._ZN11User_Uart_T6printfEPKcz
                0x9000c530        0xc build/bsp_uart.o
 .ARM.extab     0x9000c53c       0x18 i:/mcu/gnu_tools_arm/bin/../lib/gcc/arm-none-eabi/5.4.1/armv7e-m/fpu/fpv5-d16\libgcc.a(pr-support.o)

.ARM            0x9000c554      0x120
                0x9000c554                __exidx_start = .
 *(.ARM.exidx*)
 .ARM.exidx.text._Z41__static_initialization_and_destruction_0ii
                0x9000c60c        0x0 build/app.o
                                  0x8 (size before relaxing)
 .ARM.exidx.text.Error_Handler
                0x9000c60c        0x0 build/app.o
                                  0x8 (size before relaxing)
 .ARM.exidx.text._ZL21my_SystemClock_Configv
                0x9000c60c        0x8 build/app.o
 .ARM.exidx.text.main
                0x9000c614        0x8 build/app.o
 .ARM.exidx.text._GLOBAL__sub_I_Yuki
                0x9000c61c        0x8 build/app.o
 .ARM.exidx.text._Z7My_TaskPv
                0x9000c624        0x8 build/app_task.o
 .ARM.exidx.text._Z10Start_TaskPv
                0x9000c62c        0x8 build/app_task.o
 .ARM.exidx.text._ZN11User_Uart_T15m_start_receiveEv
                0x9000c634        0x8 build/bsp_uart.o
 .ARM.exidx.text._ZN11User_Uart_TC2Ev
                0x9000c63c        0x8 build/bsp_uart.o
 .ARM.exidx.text._ZN11User_Uart_TD2Ev
                0x9000c644        0x0 build/bsp_uart.o
                                  0x8 (size before relaxing)
 .ARM.exidx.text._ZN11User_Uart_T4initEv
                0x9000c644        0x8 build/bsp_uart.o
 .ARM.exidx.text._ZN11User_Uart_T11send_stringEPKc
                0x9000c64c        0x8 build/bsp_uart.o
 .ARM.exidx.text._ZN11User_Uart_T12m_send_NcharEPhm
                0x9000c654        0x8 build/bsp_uart.o
 .ARM.exidx.text._ZN11User_Uart_T11send_stringEPh
                0x9000c65c        0x8 build/bsp_uart.o
 .ARM.exidx.text._ZN11User_Uart_T6printfEPKcz
                0x9000c664       0x10 build/bsp_uart.o
                                  0x8 (size before relaxing)
 .ARM.exidx     0x9000c554        0x8 i:/mcu/gnu_tools_arm/bin/../lib/gcc/arm-none-eabi/5.4.1/armv7e-m/fpu/fpv5-d16\libgcc.a(_udivmoddi4.o)
 .ARM.exidx     0x9000c55c       0x78 i:/mcu/gnu_tools_arm/bin/../lib/gcc/arm-none-eabi/5.4.1/armv7e-m/fpu/fpv5-d16\libgcc.a(unwind-arm.o)
                                 0xd8 (size before relaxing)
 .ARM.exidx     0x9000c5d4       0x38 i:/mcu/gnu_tools_arm/bin/../lib/gcc/arm-none-eabi/5.4.1/armv7e-m/fpu/fpv5-d16\libgcc.a(pr-support.o)
                                 0x48 (size before relaxing)
                0x9000c674                __exidx_end = .

.rel.dyn        0x9000c674        0x0
 .rel.iplt      0x9000c674        0x0 i:/mcu/gnu_tools_arm/bin/../lib/gcc/arm-none-eabi/5.4.1/armv7e-m/fpu/fpv5-d16/crtbegin.o

.preinit_array  0x9000c674        0x0
                0x9000c674                PROVIDE (__preinit_array_start, .)
 *(.preinit_array*)
                0x9000c674                PROVIDE (__preinit_array_end, .)

.init_array     0x9000c674        0xc
                0x9000c674                PROVIDE (__init_array_start, .)
 *(SORT(.init_array.*))
 .init_array.00000
                0x9000c674        0x4 i:/mcu/gnu_tools_arm/bin/../lib/gcc/arm-none-eabi/5.4.1/../../../../arm-none-eabi/lib/armv7e-m/fpu/fpv5-d16\libc.a(lib_a-__call_atexit.o)
 *(.init_array*)
 .init_array    0x9000c678        0x4 i:/mcu/gnu_tools_arm/bin/../lib/gcc/arm-none-eabi/5.4.1/armv7e-m/fpu/fpv5-d16/crtbegin.o
 .init_array    0x9000c67c        0x4 build/app.o
                0x9000c680                PROVIDE (__init_array_end, .)

.fini_array     0x9000c680        0x4
                0x9000c680                PROVIDE (__fini_array_start, .)
 *(SORT(.fini_array.*))
 *(.fini_array*)
 .fini_array    0x9000c680        0x4 i:/mcu/gnu_tools_arm/bin/../lib/gcc/arm-none-eabi/5.4.1/armv7e-m/fpu/fpv5-d16/crtbegin.o
                0x9000c684                PROVIDE (__fini_array_end, .)
                0x9000c684                _sidata = LOADADDR (.data)

.data           0x24000000      0x9c0 load address 0x9000c684
                0x24000000                . = ALIGN (0x4)
                0x24000000                _sdata = .
 *(.data)
 .data          0x24000000        0x4 i:/mcu/gnu_tools_arm/bin/../lib/gcc/arm-none-eabi/5.4.1/armv7e-m/fpu/fpv5-d16/crtbegin.o
                0x24000000                __dso_handle
 *(.data*)
 .data.uwTickPrio
                0x24000004        0x4 build/stm32h7xx_hal.o
                0x24000004                uwTickPrio
 .data.uwTickFreq
                0x24000008        0x1 build/stm32h7xx_hal.o
                0x24000008                uwTickFreq
 *fill*         0x24000009        0x3 
 .data.SystemD2Clock
                0x2400000c        0x4 build/system_stm32h7xx.o
                0x2400000c                SystemD2Clock
 .data.SystemCoreClock
                0x24000010        0x4 build/system_stm32h7xx.o
                0x24000010                SystemCoreClock
 *fill*         0x24000014        0x4 
 .data.impure_data
                0x24000018      0x428 i:/mcu/gnu_tools_arm/bin/../lib/gcc/arm-none-eabi/5.4.1/../../../../arm-none-eabi/lib/armv7e-m/fpu/fpv5-d16\libc.a(lib_a-impure.o)
 .data._impure_ptr
                0x24000440        0x4 i:/mcu/gnu_tools_arm/bin/../lib/gcc/arm-none-eabi/5.4.1/../../../../arm-none-eabi/lib/armv7e-m/fpu/fpv5-d16\libc.a(lib_a-impure.o)
                0x24000440                _impure_ptr
 .data.__malloc_av_
                0x24000444      0x408 i:/mcu/gnu_tools_arm/bin/../lib/gcc/arm-none-eabi/5.4.1/../../../../arm-none-eabi/lib/armv7e-m/fpu/fpv5-d16\libc.a(lib_a-mallocr.o)
                0x24000444                __malloc_av_
 .data.__malloc_trim_threshold
                0x2400084c        0x4 i:/mcu/gnu_tools_arm/bin/../lib/gcc/arm-none-eabi/5.4.1/../../../../arm-none-eabi/lib/armv7e-m/fpu/fpv5-d16\libc.a(lib_a-mallocr.o)
                0x2400084c                __malloc_trim_threshold
 .data.__malloc_sbrk_base
                0x24000850        0x4 i:/mcu/gnu_tools_arm/bin/../lib/gcc/arm-none-eabi/5.4.1/../../../../arm-none-eabi/lib/armv7e-m/fpu/fpv5-d16\libc.a(lib_a-mallocr.o)
                0x24000850                __malloc_sbrk_base
 .data.__global_locale
                0x24000854      0x16c i:/mcu/gnu_tools_arm/bin/../lib/gcc/arm-none-eabi/5.4.1/../../../../arm-none-eabi/lib/armv7e-m/fpu/fpv5-d16\libc.a(lib_a-locale.o)
                0x24000854                __global_locale
                0x240009c0                . = ALIGN (0x4)
                0x240009c0                _edata = .

.jcr            0x240009c0        0x0 load address 0x9000d044
 .jcr           0x240009c0        0x0 i:/mcu/gnu_tools_arm/bin/../lib/gcc/arm-none-eabi/5.4.1/armv7e-m/fpu/fpv5-d16/crtbegin.o

.igot.plt       0x240009c0        0x0 load address 0x9000d044
 .igot.plt      0x240009c0        0x0 i:/mcu/gnu_tools_arm/bin/../lib/gcc/arm-none-eabi/5.4.1/armv7e-m/fpu/fpv5-d16/crtbegin.o
                0x240009c0                . = ALIGN (0x4)

.bss            0x240009c0     0x1b98 load address 0x9000d044
                0x240009c0                _sbss = .
                0x240009c0                __bss_start__ = _sbss
 *(.bss)
 .bss           0x240009c0       0x1c i:/mcu/gnu_tools_arm/bin/../lib/gcc/arm-none-eabi/5.4.1/armv7e-m/fpu/fpv5-d16/crtbegin.o
 *(.bss*)
 .bss.recv_num  0x240009dc        0x4 build/stm32h7xx_it.o
                0x240009dc                recv_num
 .bss.Yuki      0x240009e0       0x84 build/app.o
                0x240009e0                Yuki
 .bss.start_tcb
                0x24000a64       0xac build/app.o
                0x24000a64                start_tcb
 .bss.start_stk
                0x24000b10      0x200 build/app.o
                0x24000b10                start_stk
 .bss.my_task_stk
                0x24000d10      0x400 build/app_task.o
                0x24000d10                my_task_stk
 .bss.MyTaskTCB
                0x24001110       0xac build/app_task.o
                0x24001110                MyTaskTCB
 .bss._ZZN11User_Uart_T6printfEPKczE3tmp
                0x240011bc        0xc build/bsp_uart.o
 .bss.__malloc_max_total_mem
                0x240011c8        0x4 i:/mcu/gnu_tools_arm/bin/../lib/gcc/arm-none-eabi/5.4.1/../../../../arm-none-eabi/lib/armv7e-m/fpu/fpv5-d16\libc.a(lib_a-mallocr.o)
                0x240011c8                __malloc_max_total_mem
 .bss.__malloc_max_sbrked_mem
                0x240011cc        0x4 i:/mcu/gnu_tools_arm/bin/../lib/gcc/arm-none-eabi/5.4.1/../../../../arm-none-eabi/lib/armv7e-m/fpu/fpv5-d16\libc.a(lib_a-mallocr.o)
                0x240011cc                __malloc_max_sbrked_mem
 .bss.__malloc_top_pad
                0x240011d0        0x4 i:/mcu/gnu_tools_arm/bin/../lib/gcc/arm-none-eabi/5.4.1/../../../../arm-none-eabi/lib/armv7e-m/fpu/fpv5-d16\libc.a(lib_a-mallocr.o)
                0x240011d0                __malloc_top_pad
 .bss.__malloc_current_mallinfo
                0x240011d4       0x28 i:/mcu/gnu_tools_arm/bin/../lib/gcc/arm-none-eabi/5.4.1/../../../../arm-none-eabi/lib/armv7e-m/fpu/fpv5-d16\libc.a(lib_a-mallocr.o)
                0x240011d4                __malloc_current_mallinfo
 .bss.heap_end.4169
                0x240011fc        0x4 i:/mcu/gnu_tools_arm/bin/../lib/gcc/arm-none-eabi/5.4.1/../../../../arm-none-eabi/lib/armv7e-m/fpu/fpv5-d16\libnosys.a(sbrk.o)
 *(COMMON)
 COMMON         0x24001200        0x4 build/stm32h7xx_hal.o
                0x24001200                uwTick
 COMMON         0x24001204      0x17c build/usart.o
                0x24001204                hdma_uart4_rx
                0x2400127c                huart4
                0x24001308                hdma_uart4_tx
 COMMON         0x24001380        0x4 build/os_cpu_c.o
                0x24001380                OS_CPU_ExceptStkBase
 COMMON         0x24001384      0xc80 build/os_cfg_app.o
                0x24001384                OSCfg_StatTaskStk
                0x24001584                OSCfg_MsgPool
                0x24001704                OSCfg_TmrTaskStk
                0x24001904                OSCfg_ISRStk
                0x24001d04                OSCfg_TickTaskStk
                0x24001f04                OSCfg_IdleTaskStk
 COMMON         0x24002004        0x8 build/os_prio.o
                0x24002004                OSPrioTbl
 COMMON         0x2400200c      0x548 build/os_var.o
                0x2400200c                OSSchedLockNestingCtr
                0x24002010                OS_AppTaskReturnHookPtr
                0x24002014                OSStatTaskCtr
                0x24002018                OSTaskRegNextAvailID
                0x24002019                OSRunning
                0x2400201c                OSRdyList
                0x2400221c                OSInitialized
                0x2400221d                OSPrioHighRdy
                0x2400221e                OSStatTaskRdy
                0x24002220                OS_AppTaskCreateHookPtr
                0x24002224                OSPrioCur
                0x24002228                OSTickTaskTCB
                0x240022d4                OSTmrTickCtr
                0x240022d8                OSTCBCurPtr
                0x240022dc                OSStatTaskCPUUsageMax
                0x240022e0                OSTCBHighRdyPtr
                0x240022e4                OS_AppTaskDelHookPtr
                0x240022e8                OS_AppTimeTickHookPtr
                0x240022ec                OSStatTaskCPUUsage
                0x240022f0                OSTaskCtxSwCtr
                0x240022f4                OSIntNestingCtr
                0x240022f6                OSTaskQty
                0x240022f8                OSTmrTaskTCB
                0x240023a4                OSMsgPool
                0x240023ac                OSIdleTaskTCB
                0x24002458                OSSchedRoundRobinDfltTimeQuanta
                0x2400245c                OSTmrMutex
                0x24002474                OS_AppIdleTaskHookPtr
                0x24002478                OSStatTaskCtrMax
                0x2400247c                OSTickCtr
                0x24002480                OS_AppTaskSwHookPtr
                0x24002484                OSStatTaskCtrRun
                0x24002488                OS_AppStatTaskHookPtr
                0x2400248c                OSStatResetFlag
                0x24002490                OSStatTaskTCB
                0x2400253c                OSTmrListPtr
                0x24002540                OSTmrUpdateCnt
                0x24002544                OSSchedRoundRobinEn
                0x24002548                OSTickListDly
                0x2400254c                OSTmrUpdateCtr
                0x24002550                OSTickListTimeout
 COMMON         0x24002554        0x4 i:/mcu/gnu_tools_arm/bin/../lib/gcc/arm-none-eabi/5.4.1/../../../../arm-none-eabi/lib/armv7e-m/fpu/fpv5-d16\libc.a(lib_a-reent.o)
                0x24002554                errno
                0x24002558                . = ALIGN (0x4)
                0x24002558                _ebss = .
                0x24002558                __bss_end__ = _ebss

._user_heap_stack
                0x24002558      0x800 load address 0x9000d044
                0x24002558                . = ALIGN (0x8)
                0x24002558                PROVIDE (end, .)
                [!provide]                PROVIDE (_end, .)
                0x24002958                . = (. + _Min_Heap_Size)
 *fill*         0x24002558      0x400 
                0x24002d58                . = (. + _Min_Stack_Size)
 *fill*         0x24002958      0x400 
                0x24002d58                . = ALIGN (0x8)

/DISCARD/
 libc.a(*)
 libm.a(*)
 libgcc.a(*)

.ARM.attributes
                0x00000000       0x2e
 *(.ARM.attributes)
 .ARM.attributes
                0x00000000       0x20 i:/mcu/gnu_tools_arm/bin/../lib/gcc/arm-none-eabi/5.4.1/armv7e-m/fpu/fpv5-d16/crti.o
 .ARM.attributes
                0x00000020       0x32 i:/mcu/gnu_tools_arm/bin/../lib/gcc/arm-none-eabi/5.4.1/armv7e-m/fpu/fpv5-d16/crtbegin.o
 .ARM.attributes
                0x00000052       0x37 build/stm32h7xx_it.o
 .ARM.attributes
                0x00000089       0x37 build/stm32h7xx_hal_msp.o
 .ARM.attributes
                0x000000c0       0x37 build/stm32h7xx_hal_cortex.o
 .ARM.attributes
                0x000000f7       0x37 build/stm32h7xx_hal_rcc.o
 .ARM.attributes
                0x0000012e       0x37 build/stm32h7xx_hal_rcc_ex.o
 .ARM.attributes
                0x00000165       0x37 build/stm32h7xx_hal_gpio.o
 .ARM.attributes
                0x0000019c       0x37 build/stm32h7xx_hal_dma.o
 .ARM.attributes
                0x000001d3       0x37 build/stm32h7xx_hal_pwr_ex.o
 .ARM.attributes
                0x0000020a       0x37 build/stm32h7xx_hal.o
 .ARM.attributes
                0x00000241       0x37 build/system_stm32h7xx.o
 .ARM.attributes
                0x00000278       0x37 build/gpio.o
 .ARM.attributes
                0x000002af       0x37 build/dma.o
 .ARM.attributes
                0x000002e6       0x37 build/usart.o
 .ARM.attributes
                0x0000031d       0x37 build/stm32h7xx_hal_uart.o
 .ARM.attributes
                0x00000354       0x37 build/stm32h7xx_hal_uart_ex.o
 .ARM.attributes
                0x0000038b       0x37 build/os_cpu_c.o
 .ARM.attributes
                0x000003c2       0x37 build/os_cfg_app.o
 .ARM.attributes
                0x000003f9       0x37 build/os_core.o
 .ARM.attributes
                0x00000430       0x37 build/os_mem.o
 .ARM.attributes
                0x00000467       0x37 build/os_msg.o
 .ARM.attributes
                0x0000049e       0x37 build/os_mutex.o
 .ARM.attributes
                0x000004d5       0x37 build/os_prio.o
 .ARM.attributes
                0x0000050c       0x37 build/os_stat.o
 .ARM.attributes
                0x00000543       0x37 build/os_task.o
 .ARM.attributes
                0x0000057a       0x37 build/os_time.o
 .ARM.attributes
                0x000005b1       0x37 build/os_tick.o
 .ARM.attributes
                0x000005e8       0x37 build/os_tmr.o
 .ARM.attributes
                0x0000061f       0x37 build/os_var.o
 .ARM.attributes
                0x00000656       0x37 build/app.o
 .ARM.attributes
                0x0000068d       0x37 build/app_task.o
 .ARM.attributes
                0x000006c4       0x37 build/bsp_uart.o
 .ARM.attributes
                0x000006fb       0x21 build/startup_stm32h750xx.o
 .ARM.attributes
                0x0000071c       0x23 build/cpu_a.o
 .ARM.attributes
                0x0000073f       0x23 build/os_cpu_a.o
 .ARM.attributes
                0x00000762       0x32 i:/mcu/gnu_tools_arm/bin/../lib/gcc/arm-none-eabi/5.4.1/../../../../arm-none-eabi/lib/armv7e-m/fpu/fpv5-d16\libc.a(lib_a-aeabi_atexit.o)
 .ARM.attributes
                0x00000794       0x32 i:/mcu/gnu_tools_arm/bin/../lib/gcc/arm-none-eabi/5.4.1/../../../../arm-none-eabi/lib/armv7e-m/fpu/fpv5-d16\libc.a(lib_a-cxa_atexit.o)
 .ARM.attributes
                0x000007c6       0x32 i:/mcu/gnu_tools_arm/bin/../lib/gcc/arm-none-eabi/5.4.1/../../../../arm-none-eabi/lib/armv7e-m/fpu/fpv5-d16\libc.a(lib_a-impure.o)
 .ARM.attributes
                0x000007f8       0x32 i:/mcu/gnu_tools_arm/bin/../lib/gcc/arm-none-eabi/5.4.1/../../../../arm-none-eabi/lib/armv7e-m/fpu/fpv5-d16\libc.a(lib_a-init.o)
 .ARM.attributes
                0x0000082a       0x32 i:/mcu/gnu_tools_arm/bin/../lib/gcc/arm-none-eabi/5.4.1/../../../../arm-none-eabi/lib/armv7e-m/fpu/fpv5-d16\libc.a(lib_a-memset.o)
 .ARM.attributes
                0x0000085c       0x32 i:/mcu/gnu_tools_arm/bin/../lib/gcc/arm-none-eabi/5.4.1/../../../../arm-none-eabi/lib/armv7e-m/fpu/fpv5-d16\libc.a(lib_a-sprintf.o)
 .ARM.attributes
                0x0000088e       0x32 i:/mcu/gnu_tools_arm/bin/../lib/gcc/arm-none-eabi/5.4.1/../../../../arm-none-eabi/lib/armv7e-m/fpu/fpv5-d16\libc.a(lib_a-svfprintf.o)
 .ARM.attributes
                0x000008c0       0x32 i:/mcu/gnu_tools_arm/bin/../lib/gcc/arm-none-eabi/5.4.1/../../../../arm-none-eabi/lib/armv7e-m/fpu/fpv5-d16\libc.a(lib_a-__atexit.o)
 .ARM.attributes
                0x000008f2       0x32 i:/mcu/gnu_tools_arm/bin/../lib/gcc/arm-none-eabi/5.4.1/../../../../arm-none-eabi/lib/armv7e-m/fpu/fpv5-d16\libc.a(lib_a-__call_atexit.o)
 .ARM.attributes
                0x00000924       0x32 i:/mcu/gnu_tools_arm/bin/../lib/gcc/arm-none-eabi/5.4.1/../../../../arm-none-eabi/lib/armv7e-m/fpu/fpv5-d16\libc.a(lib_a-atexit.o)
 .ARM.attributes
                0x00000956       0x32 i:/mcu/gnu_tools_arm/bin/../lib/gcc/arm-none-eabi/5.4.1/../../../../arm-none-eabi/lib/armv7e-m/fpu/fpv5-d16\libc.a(lib_a-dtoa.o)
 .ARM.attributes
                0x00000988       0x32 i:/mcu/gnu_tools_arm/bin/../lib/gcc/arm-none-eabi/5.4.1/../../../../arm-none-eabi/lib/armv7e-m/fpu/fpv5-d16\libc.a(lib_a-fini.o)
 .ARM.attributes
                0x000009ba       0x32 i:/mcu/gnu_tools_arm/bin/../lib/gcc/arm-none-eabi/5.4.1/../../../../arm-none-eabi/lib/armv7e-m/fpu/fpv5-d16\libc.a(lib_a-localeconv.o)
 .ARM.attributes
                0x000009ec       0x32 i:/mcu/gnu_tools_arm/bin/../lib/gcc/arm-none-eabi/5.4.1/../../../../arm-none-eabi/lib/armv7e-m/fpu/fpv5-d16\libc.a(lib_a-mallocr.o)
 .ARM.attributes
                0x00000a1e       0x1e i:/mcu/gnu_tools_arm/bin/../lib/gcc/arm-none-eabi/5.4.1/../../../../arm-none-eabi/lib/armv7e-m/fpu/fpv5-d16\libc.a(lib_a-memchr.o)
 .ARM.attributes
                0x00000a3c       0x1e i:/mcu/gnu_tools_arm/bin/../lib/gcc/arm-none-eabi/5.4.1/../../../../arm-none-eabi/lib/armv7e-m/fpu/fpv5-d16\libc.a(lib_a-memcpy.o)
 .ARM.attributes
                0x00000a5a       0x32 i:/mcu/gnu_tools_arm/bin/../lib/gcc/arm-none-eabi/5.4.1/../../../../arm-none-eabi/lib/armv7e-m/fpu/fpv5-d16\libc.a(lib_a-mlock.o)
 .ARM.attributes
                0x00000a8c       0x32 i:/mcu/gnu_tools_arm/bin/../lib/gcc/arm-none-eabi/5.4.1/../../../../arm-none-eabi/lib/armv7e-m/fpu/fpv5-d16\libc.a(lib_a-mprec.o)
 .ARM.attributes
                0x00000abe       0x32 i:/mcu/gnu_tools_arm/bin/../lib/gcc/arm-none-eabi/5.4.1/../../../../arm-none-eabi/lib/armv7e-m/fpu/fpv5-d16\libc.a(lib_a-sbrkr.o)
 .ARM.attributes
                0x00000af0       0x1e i:/mcu/gnu_tools_arm/bin/../lib/gcc/arm-none-eabi/5.4.1/../../../../arm-none-eabi/lib/armv7e-m/fpu/fpv5-d16\libc.a(lib_a-strlen.o)
 .ARM.attributes
                0x00000b0e       0x32 i:/mcu/gnu_tools_arm/bin/../lib/gcc/arm-none-eabi/5.4.1/../../../../arm-none-eabi/lib/armv7e-m/fpu/fpv5-d16\libc.a(lib_a-svfiprintf.o)
 .ARM.attributes
                0x00000b40       0x32 i:/mcu/gnu_tools_arm/bin/../lib/gcc/arm-none-eabi/5.4.1/../../../../arm-none-eabi/lib/armv7e-m/fpu/fpv5-d16\libc.a(lib_a-callocr.o)
 .ARM.attributes
                0x00000b72       0x32 i:/mcu/gnu_tools_arm/bin/../lib/gcc/arm-none-eabi/5.4.1/../../../../arm-none-eabi/lib/armv7e-m/fpu/fpv5-d16\libc.a(lib_a-freer.o)
 .ARM.attributes
                0x00000ba4       0x32 i:/mcu/gnu_tools_arm/bin/../lib/gcc/arm-none-eabi/5.4.1/../../../../arm-none-eabi/lib/armv7e-m/fpu/fpv5-d16\libc.a(lib_a-locale.o)
 .ARM.attributes
                0x00000bd6       0x32 i:/mcu/gnu_tools_arm/bin/../lib/gcc/arm-none-eabi/5.4.1/../../../../arm-none-eabi/lib/armv7e-m/fpu/fpv5-d16\libc.a(lib_a-mbtowc_r.o)
 .ARM.attributes
                0x00000c08       0x32 i:/mcu/gnu_tools_arm/bin/../lib/gcc/arm-none-eabi/5.4.1/../../../../arm-none-eabi/lib/armv7e-m/fpu/fpv5-d16\libc.a(lib_a-memmove.o)
 .ARM.attributes
                0x00000c3a       0x32 i:/mcu/gnu_tools_arm/bin/../lib/gcc/arm-none-eabi/5.4.1/../../../../arm-none-eabi/lib/armv7e-m/fpu/fpv5-d16\libc.a(lib_a-reallocr.o)
 .ARM.attributes
                0x00000c6c       0x32 i:/mcu/gnu_tools_arm/bin/../lib/gcc/arm-none-eabi/5.4.1/../../../../arm-none-eabi/lib/armv7e-m/fpu/fpv5-d16\libc.a(lib_a-reent.o)
 .ARM.attributes
                0x00000c9e       0x32 i:/mcu/gnu_tools_arm/bin/../lib/gcc/arm-none-eabi/5.4.1/../../../../arm-none-eabi/lib/armv7e-m/fpu/fpv5-d16\libc.a(lib_a-wctomb_r.o)
 .ARM.attributes
                0x00000cd0       0x32 i:/mcu/gnu_tools_arm/bin/../lib/gcc/arm-none-eabi/5.4.1/../../../../arm-none-eabi/lib/armv7e-m/fpu/fpv5-d16\libc.a(lib_a-ctype_.o)
 .ARM.attributes
                0x00000d02       0x32 i:/mcu/gnu_tools_arm/bin/../lib/gcc/arm-none-eabi/5.4.1/../../../../arm-none-eabi/lib/armv7e-m/fpu/fpv5-d16\libnosys.a(sbrk.o)
 .ARM.attributes
                0x00000d34       0x20 i:/mcu/gnu_tools_arm/bin/../lib/gcc/arm-none-eabi/5.4.1/armv7e-m/fpu/fpv5-d16\libgcc.a(_aeabi_uldivmod.o)
 .ARM.attributes
                0x00000d54       0x32 i:/mcu/gnu_tools_arm/bin/../lib/gcc/arm-none-eabi/5.4.1/armv7e-m/fpu/fpv5-d16\libgcc.a(_udivmoddi4.o)
 .ARM.attributes
                0x00000d86       0x20 i:/mcu/gnu_tools_arm/bin/../lib/gcc/arm-none-eabi/5.4.1/armv7e-m/fpu/fpv5-d16\libgcc.a(_dvmd_tls.o)
 .ARM.attributes
                0x00000da6       0x20 i:/mcu/gnu_tools_arm/bin/../lib/gcc/arm-none-eabi/5.4.1/armv7e-m/fpu/fpv5-d16/crtn.o
OUTPUT(build/ucos_test.elf elf32-littlearm)

.debug_info     0x00000000    0x2102b
 .debug_info    0x00000000      0xa38 build/stm32h7xx_it.o
 .debug_info    0x00000a38      0x530 build/stm32h7xx_hal_msp.o
 .debug_info    0x00000f68     0x1361 build/stm32h7xx_hal_cortex.o
 .debug_info    0x000022c9     0x1286 build/stm32h7xx_hal_rcc.o
 .debug_info    0x0000354f     0x1a37 build/stm32h7xx_hal_rcc_ex.o
 .debug_info    0x00004f86      0xdfa build/stm32h7xx_hal_gpio.o
 .debug_info    0x00005d80      0xf55 build/stm32h7xx_hal_dma.o
 .debug_info    0x00006cd5     0x1221 build/stm32h7xx_hal_pwr_ex.o
 .debug_info    0x00007ef6     0x17f6 build/stm32h7xx_hal.o
 .debug_info    0x000096ec      0xdde build/system_stm32h7xx.o
 .debug_info    0x0000a4ca      0x706 build/gpio.o
 .debug_info    0x0000abd0      0x937 build/dma.o
 .debug_info    0x0000b507     0x17b7 build/usart.o
 .debug_info    0x0000ccbe     0x2479 build/stm32h7xx_hal_uart.o
 .debug_info    0x0000f137      0xd32 build/stm32h7xx_hal_uart_ex.o
 .debug_info    0x0000fe69      0xa82 build/os_cpu_c.o
 .debug_info    0x000108eb      0x436 build/os_cfg_app.o
 .debug_info    0x00010d21     0x19cb build/os_core.o
 .debug_info    0x000126ec      0x856 build/os_mem.o
 .debug_info    0x00012f42      0x89f build/os_msg.o
 .debug_info    0x000137e1     0x1443 build/os_mutex.o
 .debug_info    0x00014c24      0x1f3 build/os_prio.o
 .debug_info    0x00014e17      0xf01 build/os_stat.o
 .debug_info    0x00015d18     0x1f94 build/os_task.o
 .debug_info    0x00017cac     0x1073 build/os_time.o
 .debug_info    0x00018d1f      0xf7d build/os_tick.o
 .debug_info    0x00019c9c     0x13b3 build/os_tmr.o
 .debug_info    0x0001b04f      0xaea build/os_var.o
 .debug_info    0x0001bb39     0x23ef build/app.o
 .debug_info    0x0001df28     0x1872 build/app_task.o
 .debug_info    0x0001f79a     0x1764 build/bsp_uart.o
 .debug_info    0x00020efe       0x52 build/startup_stm32h750xx.o
 .debug_info    0x00020f50       0x68 build/cpu_a.o
 .debug_info    0x00020fb8       0x73 build/os_cpu_a.o

.debug_abbrev   0x00000000     0x3dd0
 .debug_abbrev  0x00000000      0x181 build/stm32h7xx_it.o
 .debug_abbrev  0x00000181       0xcd build/stm32h7xx_hal_msp.o
 .debug_abbrev  0x0000024e      0x322 build/stm32h7xx_hal_cortex.o
 .debug_abbrev  0x00000570      0x230 build/stm32h7xx_hal_rcc.o
 .debug_abbrev  0x000007a0      0x254 build/stm32h7xx_hal_rcc_ex.o
 .debug_abbrev  0x000009f4      0x233 build/stm32h7xx_hal_gpio.o
 .debug_abbrev  0x00000c27      0x2be build/stm32h7xx_hal_dma.o
 .debug_abbrev  0x00000ee5      0x276 build/stm32h7xx_hal_pwr_ex.o
 .debug_abbrev  0x0000115b      0x22e build/stm32h7xx_hal.o
 .debug_abbrev  0x00001389      0x110 build/system_stm32h7xx.o
 .debug_abbrev  0x00001499      0x155 build/gpio.o
 .debug_abbrev  0x000015ee      0x126 build/dma.o
 .debug_abbrev  0x00001714      0x1d8 build/usart.o
 .debug_abbrev  0x000018ec      0x28d build/stm32h7xx_hal_uart.o
 .debug_abbrev  0x00001b79      0x228 build/stm32h7xx_hal_uart_ex.o
 .debug_abbrev  0x00001da1      0x264 build/os_cpu_c.o
 .debug_abbrev  0x00002005       0xb6 build/os_cfg_app.o
 .debug_abbrev  0x000020bb      0x26d build/os_core.o
 .debug_abbrev  0x00002328      0x198 build/os_mem.o
 .debug_abbrev  0x000024c0      0x1a0 build/os_msg.o
 .debug_abbrev  0x00002660      0x24d build/os_mutex.o
 .debug_abbrev  0x000028ad       0xf4 build/os_prio.o
 .debug_abbrev  0x000029a1      0x1da build/os_stat.o
 .debug_abbrev  0x00002b7b      0x221 build/os_task.o
 .debug_abbrev  0x00002d9c      0x1bb build/os_time.o
 .debug_abbrev  0x00002f57      0x210 build/os_tick.o
 .debug_abbrev  0x00003167      0x25f build/os_tmr.o
 .debug_abbrev  0x000033c6       0xb7 build/os_var.o
 .debug_abbrev  0x0000347d      0x398 build/app.o
 .debug_abbrev  0x00003815      0x274 build/app_task.o
 .debug_abbrev  0x00003a89      0x30d build/bsp_uart.o
 .debug_abbrev  0x00003d96       0x12 build/startup_stm32h750xx.o
 .debug_abbrev  0x00003da8       0x14 build/cpu_a.o
 .debug_abbrev  0x00003dbc       0x14 build/os_cpu_a.o

.debug_loc      0x00000000     0xcba9
 .debug_loc     0x00000000       0x80 build/stm32h7xx_it.o
 .debug_loc     0x00000080       0x2c build/stm32h7xx_hal_msp.o
 .debug_loc     0x000000ac      0x57a build/stm32h7xx_hal_cortex.o
 .debug_loc     0x00000626      0x949 build/stm32h7xx_hal_rcc.o
 .debug_loc     0x00000f6f     0x147c build/stm32h7xx_hal_rcc_ex.o
 .debug_loc     0x000023eb      0x387 build/stm32h7xx_hal_gpio.o
 .debug_loc     0x00002772      0xf26 build/stm32h7xx_hal_dma.o
 .debug_loc     0x00003698      0x53a build/stm32h7xx_hal_pwr_ex.o
 .debug_loc     0x00003bd2      0x5f1 build/stm32h7xx_hal.o
 .debug_loc     0x000041c3      0x18d build/system_stm32h7xx.o
 .debug_loc     0x00004350       0x38 build/gpio.o
 .debug_loc     0x00004388       0x38 build/dma.o
 .debug_loc     0x000043c0       0xda build/usart.o
 .debug_loc     0x0000449a     0x20be build/stm32h7xx_hal_uart.o
 .debug_loc     0x00006558      0x634 build/stm32h7xx_hal_uart_ex.o
 .debug_loc     0x00006b8c      0x5f1 build/os_cpu_c.o
 .debug_loc     0x0000717d      0xc2b build/os_core.o
 .debug_loc     0x00007da8      0x4e4 build/os_mem.o
 .debug_loc     0x0000828c      0x32b build/os_msg.o
 .debug_loc     0x000085b7      0x96d build/os_mutex.o
 .debug_loc     0x00008f24      0x13d build/os_prio.o
 .debug_loc     0x00009061      0x2a7 build/os_stat.o
 .debug_loc     0x00009308     0x18c7 build/os_task.o
 .debug_loc     0x0000abcf      0x73c build/os_time.o
 .debug_loc     0x0000b30b      0x584 build/os_tick.o
 .debug_loc     0x0000b88f      0xc8d build/os_tmr.o
 .debug_loc     0x0000c51c      0x13c build/app.o
 .debug_loc     0x0000c658       0x9a build/app_task.o
 .debug_loc     0x0000c6f2      0x4b7 build/bsp_uart.o

.debug_aranges  0x00000000     0x1020
 .debug_aranges
                0x00000000       0x78 build/stm32h7xx_it.o
 .debug_aranges
                0x00000078       0x20 build/stm32h7xx_hal_msp.o
 .debug_aranges
                0x00000098       0xb0 build/stm32h7xx_hal_cortex.o
 .debug_aranges
                0x00000148       0x88 build/stm32h7xx_hal_rcc.o
 .debug_aranges
                0x000001d0       0xf8 build/stm32h7xx_hal_rcc_ex.o
 .debug_aranges
                0x000002c8       0x58 build/stm32h7xx_hal_gpio.o
 .debug_aranges
                0x00000320       0xa0 build/stm32h7xx_hal_dma.o
 .debug_aranges
                0x000003c0      0x158 build/stm32h7xx_hal_pwr_ex.o
 .debug_aranges
                0x00000518      0x1b8 build/stm32h7xx_hal.o
 .debug_aranges
                0x000006d0       0x28 build/system_stm32h7xx.o
 .debug_aranges
                0x000006f8       0x20 build/gpio.o
 .debug_aranges
                0x00000718       0x20 build/dma.o
 .debug_aranges
                0x00000738       0x30 build/usart.o
 .debug_aranges
                0x00000768      0x230 build/stm32h7xx_hal_uart.o
 .debug_aranges
                0x00000998       0x88 build/stm32h7xx_hal_uart_ex.o
 .debug_aranges
                0x00000a20       0x78 build/os_cpu_c.o
 .debug_aranges
                0x00000a98       0x20 build/os_cfg_app.o
 .debug_aranges
                0x00000ab8       0xf0 build/os_core.o
 .debug_aranges
                0x00000ba8       0x38 build/os_mem.o
 .debug_aranges
                0x00000be0       0x40 build/os_msg.o
 .debug_aranges
                0x00000c20       0x68 build/os_mutex.o
 .debug_aranges
                0x00000c88       0x38 build/os_prio.o
 .debug_aranges
                0x00000cc0       0x38 build/os_stat.o
 .debug_aranges
                0x00000cf8       0xc8 build/os_task.o
 .debug_aranges
                0x00000dc0       0x48 build/os_time.o
 .debug_aranges
                0x00000e08       0x50 build/os_tick.o
 .debug_aranges
                0x00000e58       0x80 build/os_tmr.o
 .debug_aranges
                0x00000ed8       0x18 build/os_var.o
 .debug_aranges
                0x00000ef0       0x40 build/app.o
 .debug_aranges
                0x00000f30       0x28 build/app_task.o
 .debug_aranges
                0x00000f58       0x60 build/bsp_uart.o
 .debug_aranges
                0x00000fb8       0x28 build/startup_stm32h750xx.o
 .debug_aranges
                0x00000fe0       0x20 build/cpu_a.o
 .debug_aranges
                0x00001000       0x20 build/os_cpu_a.o

.debug_ranges   0x00000000      0xe28
 .debug_ranges  0x00000000       0x68 build/stm32h7xx_it.o
 .debug_ranges  0x00000068       0x10 build/stm32h7xx_hal_msp.o
 .debug_ranges  0x00000078       0xa0 build/stm32h7xx_hal_cortex.o
 .debug_ranges  0x00000118       0xc0 build/stm32h7xx_hal_rcc.o
 .debug_ranges  0x000001d8       0xe8 build/stm32h7xx_hal_rcc_ex.o
 .debug_ranges  0x000002c0       0x48 build/stm32h7xx_hal_gpio.o
 .debug_ranges  0x00000308       0x90 build/stm32h7xx_hal_dma.o
 .debug_ranges  0x00000398      0x148 build/stm32h7xx_hal_pwr_ex.o
 .debug_ranges  0x000004e0      0x1a8 build/stm32h7xx_hal.o
 .debug_ranges  0x00000688       0x18 build/system_stm32h7xx.o
 .debug_ranges  0x000006a0       0x10 build/gpio.o
 .debug_ranges  0x000006b0       0x10 build/dma.o
 .debug_ranges  0x000006c0       0x20 build/usart.o
 .debug_ranges  0x000006e0      0x220 build/stm32h7xx_hal_uart.o
 .debug_ranges  0x00000900       0x78 build/stm32h7xx_hal_uart_ex.o
 .debug_ranges  0x00000978       0x68 build/os_cpu_c.o
 .debug_ranges  0x000009e0       0x10 build/os_cfg_app.o
 .debug_ranges  0x000009f0       0xe0 build/os_core.o
 .debug_ranges  0x00000ad0       0x28 build/os_mem.o
 .debug_ranges  0x00000af8       0x30 build/os_msg.o
 .debug_ranges  0x00000b28       0x58 build/os_mutex.o
 .debug_ranges  0x00000b80       0x28 build/os_prio.o
 .debug_ranges  0x00000ba8       0x28 build/os_stat.o
 .debug_ranges  0x00000bd0       0xb8 build/os_task.o
 .debug_ranges  0x00000c88       0x38 build/os_time.o
 .debug_ranges  0x00000cc0       0x40 build/os_tick.o
 .debug_ranges  0x00000d00       0x70 build/os_tmr.o
 .debug_ranges  0x00000d70       0x30 build/app.o
 .debug_ranges  0x00000da0       0x18 build/app_task.o
 .debug_ranges  0x00000db8       0x50 build/bsp_uart.o
 .debug_ranges  0x00000e08       0x20 build/startup_stm32h750xx.o

.debug_line     0x00000000     0x7862
 .debug_line    0x00000000      0x2c8 build/stm32h7xx_it.o
 .debug_line    0x000002c8      0x130 build/stm32h7xx_hal_msp.o
 .debug_line    0x000003f8      0x3a7 build/stm32h7xx_hal_cortex.o
 .debug_line    0x0000079f      0x61e build/stm32h7xx_hal_rcc.o
 .debug_line    0x00000dbd      0x79c build/stm32h7xx_hal_rcc_ex.o
 .debug_line    0x00001559      0x2f8 build/stm32h7xx_hal_gpio.o
 .debug_line    0x00001851     0x145f build/stm32h7xx_hal_dma.o
 .debug_line    0x00002cb0      0x572 build/stm32h7xx_hal_pwr_ex.o
 .debug_line    0x00003222      0x5a1 build/stm32h7xx_hal.o
 .debug_line    0x000037c3      0x1b9 build/system_stm32h7xx.o
 .debug_line    0x0000397c      0x165 build/gpio.o
 .debug_line    0x00003ae1      0x161 build/dma.o
 .debug_line    0x00003c42      0x2c4 build/usart.o
 .debug_line    0x00003f06      0xf6c build/stm32h7xx_hal_uart.o
 .debug_line    0x00004e72      0x44f build/stm32h7xx_hal_uart_ex.o
 .debug_line    0x000052c1      0x1e8 build/os_cpu_c.o
 .debug_line    0x000054a9       0x8c build/os_cfg_app.o
 .debug_line    0x00005535      0x44e build/os_core.o
 .debug_line    0x00005983      0x127 build/os_mem.o
 .debug_line    0x00005aaa      0x16a build/os_msg.o
 .debug_line    0x00005c14      0x262 build/os_mutex.o
 .debug_line    0x00005e76       0xef build/os_prio.o
 .debug_line    0x00005f65      0x148 build/os_stat.o
 .debug_line    0x000060ad      0x532 build/os_task.o
 .debug_line    0x000065df      0x187 build/os_time.o
 .debug_line    0x00006766      0x1e0 build/os_tick.o
 .debug_line    0x00006946      0x2d1 build/os_tmr.o
 .debug_line    0x00006c17       0x88 build/os_var.o
 .debug_line    0x00006c9f      0x329 build/app.o
 .debug_line    0x00006fc8      0x265 build/app_task.o
 .debug_line    0x0000722d      0x480 build/bsp_uart.o
 .debug_line    0x000076ad       0x75 build/startup_stm32h750xx.o
 .debug_line    0x00007722       0x77 build/cpu_a.o
 .debug_line    0x00007799       0xc9 build/os_cpu_a.o

.debug_str      0x00000000     0x6b35
 .debug_str     0x00000000      0x6c4 build/stm32h7xx_it.o
                                0x89b (size before relaxing)
 .debug_str     0x000006c4      0x24e build/stm32h7xx_hal_msp.o
                                0x3ff (size before relaxing)
 .debug_str     0x00000912      0xdbc build/stm32h7xx_hal_cortex.o
                               0x1051 (size before relaxing)
 .debug_str     0x000016ce      0x5a0 build/stm32h7xx_hal_rcc.o
                                0xa27 (size before relaxing)
 .debug_str     0x00001c6e      0x9ac build/stm32h7xx_hal_rcc_ex.o
                                0xf09 (size before relaxing)
 .debug_str     0x0000261a      0x184 build/stm32h7xx_hal_gpio.o
                                0x6e1 (size before relaxing)
 .debug_str     0x0000279e      0x3e8 build/stm32h7xx_hal_dma.o
                                0x9d8 (size before relaxing)
 .debug_str     0x00002b86      0x562 build/stm32h7xx_hal_pwr_ex.o
                                0xa50 (size before relaxing)
 .debug_str     0x000030e8      0x656 build/stm32h7xx_hal.o
                               0x1548 (size before relaxing)
 .debug_str     0x0000373e       0x3d build/system_stm32h7xx.o
                                0x73c (size before relaxing)
 .debug_str     0x0000377b       0x1d build/gpio.o
                                0x4b0 (size before relaxing)
 .debug_str     0x00003798       0x1b build/dma.o
                                0xc45 (size before relaxing)
 .debug_str     0x000037b3       0xdb build/usart.o
                               0x16f0 (size before relaxing)
 .debug_str     0x0000388e      0x82c build/stm32h7xx_hal_uart.o
                               0x1393 (size before relaxing)
 .debug_str     0x000040ba      0x1d5 build/stm32h7xx_hal_uart_ex.o
                                0xa68 (size before relaxing)
 .debug_str     0x0000428f      0x65b build/os_cpu_c.o
                                0x810 (size before relaxing)
 .debug_str     0x000048ea      0x2d9 build/os_cfg_app.o
                                0x4e5 (size before relaxing)
 .debug_str     0x00004bc3     0x111c build/os_core.o
                               0x181f (size before relaxing)
 .debug_str     0x00005cdf       0xd2 build/os_mem.o
                                0xfa5 (size before relaxing)
 .debug_str     0x00005db1       0xaa build/os_msg.o
                                0xfe1 (size before relaxing)
 .debug_str     0x00005e5b      0x11e build/os_mutex.o
                               0x143a (size before relaxing)
 .debug_str     0x00005f79       0x44 build/os_prio.o
                                0x1fc (size before relaxing)
 .debug_str     0x00005fbd      0x10c build/os_stat.o
                               0x142e (size before relaxing)
 .debug_str     0x000060c9      0x162 build/os_task.o
                               0x16a9 (size before relaxing)
 .debug_str     0x0000622b       0xe9 build/os_time.o
                               0x143a (size before relaxing)
 .debug_str     0x00006314       0x84 build/os_tick.o
                               0x1435 (size before relaxing)
 .debug_str     0x00006398      0x15c build/os_tmr.o
                               0x14e6 (size before relaxing)
 .debug_str     0x000064f4       0x1a build/os_var.o
                                0x8a5 (size before relaxing)
 .debug_str     0x0000650e      0x4f9 build/app.o
                               0x2321 (size before relaxing)
 .debug_str     0x00006a07       0x72 build/app_task.o
                               0x1e0f (size before relaxing)
 .debug_str     0x00006a79       0xbc build/bsp_uart.o
                               0x1aa4 (size before relaxing)

.comment        0x00000000       0x6e
 .comment       0x00000000       0x6e build/stm32h7xx_it.o
                                 0x6f (size before relaxing)
 .comment       0x0000006e       0x6f build/stm32h7xx_hal_msp.o
 .comment       0x0000006e       0x6f build/stm32h7xx_hal_cortex.o
 .comment       0x0000006e       0x6f build/stm32h7xx_hal_rcc.o
 .comment       0x0000006e       0x6f build/stm32h7xx_hal_rcc_ex.o
 .comment       0x0000006e       0x6f build/stm32h7xx_hal_gpio.o
 .comment       0x0000006e       0x6f build/stm32h7xx_hal_dma.o
 .comment       0x0000006e       0x6f build/stm32h7xx_hal_pwr_ex.o
 .comment       0x0000006e       0x6f build/stm32h7xx_hal.o
 .comment       0x0000006e       0x6f build/system_stm32h7xx.o
 .comment       0x0000006e       0x6f build/gpio.o
 .comment       0x0000006e       0x6f build/dma.o
 .comment       0x0000006e       0x6f build/usart.o
 .comment       0x0000006e       0x6f build/stm32h7xx_hal_uart.o
 .comment       0x0000006e       0x6f build/stm32h7xx_hal_uart_ex.o
 .comment       0x0000006e       0x6f build/os_cpu_c.o
 .comment       0x0000006e       0x6f build/os_cfg_app.o
 .comment       0x0000006e       0x6f build/os_core.o
 .comment       0x0000006e       0x6f build/os_mem.o
 .comment       0x0000006e       0x6f build/os_msg.o
 .comment       0x0000006e       0x6f build/os_mutex.o
 .comment       0x0000006e       0x6f build/os_prio.o
 .comment       0x0000006e       0x6f build/os_stat.o
 .comment       0x0000006e       0x6f build/os_task.o
 .comment       0x0000006e       0x6f build/os_time.o
 .comment       0x0000006e       0x6f build/os_tick.o
 .comment       0x0000006e       0x6f build/os_tmr.o
 .comment       0x0000006e       0x6f build/os_var.o
 .comment       0x0000006e       0x6f build/app.o
 .comment       0x0000006e       0x6f build/app_task.o
 .comment       0x0000006e       0x6f build/bsp_uart.o

.debug_frame    0x00000000     0x3134
 .debug_frame   0x00000000       0xf0 build/stm32h7xx_it.o
 .debug_frame   0x000000f0       0x28 build/stm32h7xx_hal_msp.o
 .debug_frame   0x00000118      0x164 build/stm32h7xx_hal_cortex.o
 .debug_frame   0x0000027c      0x18c build/stm32h7xx_hal_rcc.o
 .debug_frame   0x00000408      0x29c build/stm32h7xx_hal_rcc_ex.o
 .debug_frame   0x000006a4       0xc8 build/stm32h7xx_hal_gpio.o
 .debug_frame   0x0000076c      0x204 build/stm32h7xx_hal_dma.o
 .debug_frame   0x00000970      0x2fc build/stm32h7xx_hal_pwr_ex.o
 .debug_frame   0x00000c6c      0x3d0 build/stm32h7xx_hal.o
 .debug_frame   0x0000103c       0x3c build/system_stm32h7xx.o
 .debug_frame   0x00001078       0x30 build/gpio.o
 .debug_frame   0x000010a8       0x2c build/dma.o
 .debug_frame   0x000010d4       0x68 build/usart.o
 .debug_frame   0x0000113c      0x628 build/stm32h7xx_hal_uart.o
 .debug_frame   0x00001764      0x170 build/stm32h7xx_hal_uart_ex.o
 .debug_frame   0x000018d4      0x124 build/os_cpu_c.o
 .debug_frame   0x000019f8       0x20 build/os_cfg_app.o
 .debug_frame   0x00001a18      0x28c build/os_core.o
 .debug_frame   0x00001ca4       0x7c build/os_mem.o
 .debug_frame   0x00001d20       0x9c build/os_msg.o
 .debug_frame   0x00001dbc      0x138 build/os_mutex.o
 .debug_frame   0x00001ef4       0x58 build/os_prio.o
 .debug_frame   0x00001f4c       0x88 build/os_stat.o
 .debug_frame   0x00001fd4      0x2c0 build/os_task.o
 .debug_frame   0x00002294       0xc4 build/os_time.o
 .debug_frame   0x00002358       0xe8 build/os_tick.o
 .debug_frame   0x00002440      0x174 build/os_tmr.o
 .debug_frame   0x000025b4       0x8c build/app.o
 .debug_frame   0x00002640       0x40 build/app_task.o
 .debug_frame   0x00002680      0x100 build/bsp_uart.o
 .debug_frame   0x00002780       0x20 i:/mcu/gnu_tools_arm/bin/../lib/gcc/arm-none-eabi/5.4.1/../../../../arm-none-eabi/lib/armv7e-m/fpu/fpv5-d16\libc.a(lib_a-aeabi_atexit.o)
 .debug_frame   0x000027a0       0x20 i:/mcu/gnu_tools_arm/bin/../lib/gcc/arm-none-eabi/5.4.1/../../../../arm-none-eabi/lib/armv7e-m/fpu/fpv5-d16\libc.a(lib_a-cxa_atexit.o)
 .debug_frame   0x000027c0       0x2c i:/mcu/gnu_tools_arm/bin/../lib/gcc/arm-none-eabi/5.4.1/../../../../arm-none-eabi/lib/armv7e-m/fpu/fpv5-d16\libc.a(lib_a-init.o)
 .debug_frame   0x000027ec       0x34 i:/mcu/gnu_tools_arm/bin/../lib/gcc/arm-none-eabi/5.4.1/../../../../arm-none-eabi/lib/armv7e-m/fpu/fpv5-d16\libc.a(lib_a-memset.o)
 .debug_frame   0x00002820       0x84 i:/mcu/gnu_tools_arm/bin/../lib/gcc/arm-none-eabi/5.4.1/../../../../arm-none-eabi/lib/armv7e-m/fpu/fpv5-d16\libc.a(lib_a-sprintf.o)
 .debug_frame   0x000028a4       0x64 i:/mcu/gnu_tools_arm/bin/../lib/gcc/arm-none-eabi/5.4.1/../../../../arm-none-eabi/lib/armv7e-m/fpu/fpv5-d16\libc.a(lib_a-svfprintf.o)
 .debug_frame   0x00002908       0x34 i:/mcu/gnu_tools_arm/bin/../lib/gcc/arm-none-eabi/5.4.1/../../../../arm-none-eabi/lib/armv7e-m/fpu/fpv5-d16\libc.a(lib_a-__atexit.o)
 .debug_frame   0x0000293c       0x50 i:/mcu/gnu_tools_arm/bin/../lib/gcc/arm-none-eabi/5.4.1/../../../../arm-none-eabi/lib/armv7e-m/fpu/fpv5-d16\libc.a(lib_a-__call_atexit.o)
 .debug_frame   0x0000298c       0x20 i:/mcu/gnu_tools_arm/bin/../lib/gcc/arm-none-eabi/5.4.1/../../../../arm-none-eabi/lib/armv7e-m/fpu/fpv5-d16\libc.a(lib_a-atexit.o)
 .debug_frame   0x000029ac       0x84 i:/mcu/gnu_tools_arm/bin/../lib/gcc/arm-none-eabi/5.4.1/../../../../arm-none-eabi/lib/armv7e-m/fpu/fpv5-d16\libc.a(lib_a-dtoa.o)
 .debug_frame   0x00002a30       0x34 i:/mcu/gnu_tools_arm/bin/../lib/gcc/arm-none-eabi/5.4.1/../../../../arm-none-eabi/lib/armv7e-m/fpu/fpv5-d16\libc.a(lib_a-fini.o)
 .debug_frame   0x00002a64       0x40 i:/mcu/gnu_tools_arm/bin/../lib/gcc/arm-none-eabi/5.4.1/../../../../arm-none-eabi/lib/armv7e-m/fpu/fpv5-d16\libc.a(lib_a-localeconv.o)
 .debug_frame   0x00002aa4       0x58 i:/mcu/gnu_tools_arm/bin/../lib/gcc/arm-none-eabi/5.4.1/../../../../arm-none-eabi/lib/armv7e-m/fpu/fpv5-d16\libc.a(lib_a-mallocr.o)
 .debug_frame   0x00002afc       0x30 i:/mcu/gnu_tools_arm/bin/../lib/gcc/arm-none-eabi/5.4.1/../../../../arm-none-eabi/lib/armv7e-m/fpu/fpv5-d16\libc.a(lib_a-mlock.o)
 .debug_frame   0x00002b2c      0x254 i:/mcu/gnu_tools_arm/bin/../lib/gcc/arm-none-eabi/5.4.1/../../../../arm-none-eabi/lib/armv7e-m/fpu/fpv5-d16\libc.a(lib_a-mprec.o)
 .debug_frame   0x00002d80       0x2c i:/mcu/gnu_tools_arm/bin/../lib/gcc/arm-none-eabi/5.4.1/../../../../arm-none-eabi/lib/armv7e-m/fpu/fpv5-d16\libc.a(lib_a-sbrkr.o)
 .debug_frame   0x00002dac       0x78 i:/mcu/gnu_tools_arm/bin/../lib/gcc/arm-none-eabi/5.4.1/../../../../arm-none-eabi/lib/armv7e-m/fpu/fpv5-d16\libc.a(lib_a-svfiprintf.o)
 .debug_frame   0x00002e24       0x28 i:/mcu/gnu_tools_arm/bin/../lib/gcc/arm-none-eabi/5.4.1/../../../../arm-none-eabi/lib/armv7e-m/fpu/fpv5-d16\libc.a(lib_a-callocr.o)
 .debug_frame   0x00002e4c       0x74 i:/mcu/gnu_tools_arm/bin/../lib/gcc/arm-none-eabi/5.4.1/../../../../arm-none-eabi/lib/armv7e-m/fpu/fpv5-d16\libc.a(lib_a-freer.o)
 .debug_frame   0x00002ec0       0x84 i:/mcu/gnu_tools_arm/bin/../lib/gcc/arm-none-eabi/5.4.1/../../../../arm-none-eabi/lib/armv7e-m/fpu/fpv5-d16\libc.a(lib_a-locale.o)
 .debug_frame   0x00002f44       0x4c i:/mcu/gnu_tools_arm/bin/../lib/gcc/arm-none-eabi/5.4.1/../../../../arm-none-eabi/lib/armv7e-m/fpu/fpv5-d16\libc.a(lib_a-mbtowc_r.o)
 .debug_frame   0x00002f90       0x30 i:/mcu/gnu_tools_arm/bin/../lib/gcc/arm-none-eabi/5.4.1/../../../../arm-none-eabi/lib/armv7e-m/fpu/fpv5-d16\libc.a(lib_a-memmove.o)
 .debug_frame   0x00002fc0       0x60 i:/mcu/gnu_tools_arm/bin/../lib/gcc/arm-none-eabi/5.4.1/../../../../arm-none-eabi/lib/armv7e-m/fpu/fpv5-d16\libc.a(lib_a-reallocr.o)
 .debug_frame   0x00003020       0x58 i:/mcu/gnu_tools_arm/bin/../lib/gcc/arm-none-eabi/5.4.1/../../../../arm-none-eabi/lib/armv7e-m/fpu/fpv5-d16\libc.a(lib_a-reent.o)
 .debug_frame   0x00003078       0x3c i:/mcu/gnu_tools_arm/bin/../lib/gcc/arm-none-eabi/5.4.1/../../../../arm-none-eabi/lib/armv7e-m/fpu/fpv5-d16\libc.a(lib_a-wctomb_r.o)
 .debug_frame   0x000030b4       0x20 i:/mcu/gnu_tools_arm/bin/../lib/gcc/arm-none-eabi/5.4.1/../../../../arm-none-eabi/lib/armv7e-m/fpu/fpv5-d16\libnosys.a(sbrk.o)
 .debug_frame   0x000030d4       0x2c i:/mcu/gnu_tools_arm/bin/../lib/gcc/arm-none-eabi/5.4.1/armv7e-m/fpu/fpv5-d16\libgcc.a(_aeabi_uldivmod.o)
 .debug_frame   0x00003100       0x34 i:/mcu/gnu_tools_arm/bin/../lib/gcc/arm-none-eabi/5.4.1/armv7e-m/fpu/fpv5-d16\libgcc.a(_udivmoddi4.o)

.stabstr        0x00000000       0x76
 .stabstr       0x00000000       0x76 i:/mcu/gnu_tools_arm/bin/../lib/gcc/arm-none-eabi/5.4.1/../../../../arm-none-eabi/lib/armv7e-m/fpu/fpv5-d16\libnosys.a(getpid.o)

Cross Reference Table

Symbol                                            File
ADC3_IRQHandler                                   build/startup_stm32h750xx.o
ADC_IRQHandler                                    build/startup_stm32h750xx.o
ASCII_Cmp                                         build/lib_ascii.o
ASCII_IsAlpha                                     build/lib_ascii.o
ASCII_IsAlphaNum                                  build/lib_ascii.o
                                                  build/lib_str.o
ASCII_IsBlank                                     build/lib_ascii.o
ASCII_IsCtrl                                      build/lib_ascii.o
ASCII_IsDig                                       build/lib_ascii.o
                                                  build/lib_str.o
ASCII_IsDigHex                                    build/lib_ascii.o
                                                  build/lib_str.o
ASCII_IsDigOct                                    build/lib_ascii.o
ASCII_IsGraph                                     build/lib_ascii.o
ASCII_IsLower                                     build/lib_ascii.o
                                                  build/lib_str.o
ASCII_IsPrint                                     build/lib_ascii.o
                                                  build/lib_str.o
ASCII_IsPunct                                     build/lib_ascii.o
ASCII_IsSpace                                     build/lib_ascii.o
                                                  build/lib_str.o
ASCII_IsUpper                                     build/lib_ascii.o
ASCII_ToLower                                     build/lib_ascii.o
                                                  build/lib_str.o
ASCII_ToUpper                                     build/lib_ascii.o
App_OS_ClrAllHooks                                build/os_app_hooks.o
App_OS_IdleTaskHook                               build/os_app_hooks.o
App_OS_SetAllHooks                                build/os_app_hooks.o
App_OS_StatTaskHook                               build/os_app_hooks.o
App_OS_TaskCreateHook                             build/os_app_hooks.o
App_OS_TaskDelHook                                build/os_app_hooks.o
App_OS_TaskReturnHook                             build/os_app_hooks.o
App_OS_TaskSwHook                                 build/os_app_hooks.o
App_OS_TimeTickHook                               build/os_app_hooks.o
BDMA_Channel0_IRQHandler                          build/startup_stm32h750xx.o
BDMA_Channel1_IRQHandler                          build/startup_stm32h750xx.o
BDMA_Channel2_IRQHandler                          build/startup_stm32h750xx.o
BDMA_Channel3_IRQHandler                          build/startup_stm32h750xx.o
BDMA_Channel4_IRQHandler                          build/startup_stm32h750xx.o
BDMA_Channel5_IRQHandler                          build/startup_stm32h750xx.o
BDMA_Channel6_IRQHandler                          build/startup_stm32h750xx.o
BDMA_Channel7_IRQHandler                          build/startup_stm32h750xx.o
BSP_ClkDisable                                    build/bsp_clk.o
BSP_ClkEnable                                     build/bsp_clk.o
BSP_ClkFreqGet                                    build/bsp_clk.o
                                                  build/bsp_os.o
                                                  build/bsp_cpu.o
BSP_ClkFreqSet                                    build/bsp_clk.o
BSP_ClkInit                                       build/bsp_clk.o
BSP_LED_Init                                      build/bsp_led.o
BSP_LED_Off                                       build/bsp_led.o
BSP_LED_On                                        build/bsp_led.o
BSP_LED_Toggle                                    build/bsp_led.o
BSP_OS_TickDisable                                build/bsp_os.o
BSP_OS_TickEnable                                 build/bsp_os.o
BSP_OS_TickInit                                   build/bsp_os.o
BusFault_Handler                                  build/stm32h7xx_it.o
CEC_IRQHandler                                    build/startup_stm32h750xx.o
COMP1_IRQHandler                                  build/startup_stm32h750xx.o
CPU_BitBandClr                                    build/cpu_c.o
CPU_BitBandSet                                    build/cpu_c.o
CPU_CntLeadZeros                                  build/cpu_a.o
                                                  build/os_prio.o
                                                  build/cpu_core.o
CPU_CntLeadZeros08                                build/cpu_core.o
CPU_CntLeadZeros16                                build/cpu_core.o
CPU_CntLeadZeros32                                build/cpu_core.o
CPU_CntLeadZeros64                                build/cpu_core.o
CPU_CntTrailZeros                                 build/cpu_a.o
                                                  build/cpu_core.o
CPU_CntTrailZeros08                               build/cpu_core.o
CPU_CntTrailZeros16                               build/cpu_core.o
CPU_CntTrailZeros32                               build/cpu_core.o
CPU_CntTrailZeros64                               build/cpu_core.o
CPU_EndiannessTest                                build/cpu_core.o
CPU_Init                                          build/cpu_core.o
CPU_IntDis                                        build/cpu_a.o
CPU_IntEn                                         build/cpu_a.o
CPU_IntSrcDis                                     build/cpu_c.o
CPU_IntSrcEn                                      build/cpu_c.o
CPU_IntSrcPendClr                                 build/cpu_c.o
CPU_IntSrcPrioGet                                 build/cpu_c.o
CPU_IntSrcPrioSet                                 build/cpu_c.o
CPU_PopCnt32                                      build/cpu_core.o
CPU_RevBits                                       build/cpu_a.o
CPU_SR_Restore                                    build/cpu_a.o
                                                  build/os_tick.o
                                                  build/os_time.o
                                                  build/os_task.o
                                                  build/os_stat.o
                                                  build/os_sem.o
                                                  build/os_q.o
                                                  build/os_mutex.o
                                                  build/os_mem.o
                                                  build/os_flag.o
                                                  build/os_core.o
                                                  build/os_cpu_c.o
                                                  build/lib_mem.o
                                                  build/lib_math.o
                                                  build/cpu_c.o
                                                  build/os_app_hooks.o
                                                  build/bsp_os.o
CPU_SR_Save                                       build/cpu_a.o
                                                  build/os_tick.o
                                                  build/os_time.o
                                                  build/os_task.o
                                                  build/os_stat.o
                                                  build/os_sem.o
                                                  build/os_q.o
                                                  build/os_mutex.o
                                                  build/os_mem.o
                                                  build/os_flag.o
                                                  build/os_core.o
                                                  build/os_cpu_c.o
                                                  build/lib_mem.o
                                                  build/lib_math.o
                                                  build/cpu_c.o
                                                  build/os_app_hooks.o
                                                  build/bsp_os.o
CPU_SW_Exception                                  build/cpu_core.o
CPU_StatReset                                     build/cpu_core.o
CPU_TS32_to_uSec                                  build/bsp_cpu.o
CPU_TS_Get32                                      build/cpu_core.o
CPU_TS_TmrFreqGet                                 build/cpu_core.o
CPU_TS_TmrFreqSet                                 build/cpu_core.o
                                                  build/bsp_cpu.o
CPU_TS_TmrFreq_Hz                                 build/cpu_core.o
CPU_TS_TmrInit                                    build/bsp_cpu.o
                                                  build/cpu_core.o
CPU_TS_TmrRd                                      build/bsp_cpu.o
                                                  build/cpu_core.o
CPU_TS_Update                                     build/cpu_core.o
CPU_WaitForExcept                                 build/cpu_a.o
CPU_WaitForInt                                    build/cpu_a.o
CRS_IRQHandler                                    build/startup_stm32h750xx.o
CRYP_IRQHandler                                   build/startup_stm32h750xx.o
D1CorePrescTable                                  build/system_stm32h7xx.o
                                                  build/stm32h7xx_hal.o
                                                  build/stm32h7xx_hal_rcc_ex.o
                                                  build/stm32h7xx_hal_rcc.o
DCMI_IRQHandler                                   build/startup_stm32h750xx.o
DFSDM1_FLT0_IRQHandler                            build/startup_stm32h750xx.o
DFSDM1_FLT1_IRQHandler                            build/startup_stm32h750xx.o
DFSDM1_FLT2_IRQHandler                            build/startup_stm32h750xx.o
DFSDM1_FLT3_IRQHandler                            build/startup_stm32h750xx.o
DMA1_Stream0_IRQHandler                           build/stm32h7xx_it.o
DMA1_Stream1_IRQHandler                           build/stm32h7xx_it.o
DMA1_Stream2_IRQHandler                           build/startup_stm32h750xx.o
DMA1_Stream3_IRQHandler                           build/startup_stm32h750xx.o
DMA1_Stream4_IRQHandler                           build/startup_stm32h750xx.o
DMA1_Stream5_IRQHandler                           build/startup_stm32h750xx.o
DMA1_Stream6_IRQHandler                           build/startup_stm32h750xx.o
DMA1_Stream7_IRQHandler                           build/startup_stm32h750xx.o
DMA2D_IRQHandler                                  build/startup_stm32h750xx.o
DMA2_Stream0_IRQHandler                           build/startup_stm32h750xx.o
DMA2_Stream1_IRQHandler                           build/startup_stm32h750xx.o
DMA2_Stream2_IRQHandler                           build/startup_stm32h750xx.o
DMA2_Stream3_IRQHandler                           build/startup_stm32h750xx.o
DMA2_Stream4_IRQHandler                           build/startup_stm32h750xx.o
DMA2_Stream5_IRQHandler                           build/startup_stm32h750xx.o
DMA2_Stream6_IRQHandler                           build/startup_stm32h750xx.o
DMA2_Stream7_IRQHandler                           build/startup_stm32h750xx.o
DMAMUX1_OVR_IRQHandler                            build/startup_stm32h750xx.o
DMAMUX2_OVR_IRQHandler                            build/startup_stm32h750xx.o
DebugMon_Handler                                  build/stm32h7xx_it.o
Default_Handler                                   build/startup_stm32h750xx.o
ECC_IRQHandler                                    build/startup_stm32h750xx.o
ETH_IRQHandler                                    build/startup_stm32h750xx.o
ETH_WKUP_IRQHandler                               build/startup_stm32h750xx.o
EXTI0_IRQHandler                                  build/startup_stm32h750xx.o
EXTI15_10_IRQHandler                              build/startup_stm32h750xx.o
EXTI1_IRQHandler                                  build/startup_stm32h750xx.o
EXTI2_IRQHandler                                  build/startup_stm32h750xx.o
EXTI3_IRQHandler                                  build/startup_stm32h750xx.o
EXTI4_IRQHandler                                  build/startup_stm32h750xx.o
EXTI9_5_IRQHandler                                build/startup_stm32h750xx.o
Error_Handler                                     build/app.o
                                                  build/usart.o
                                                  build/main.o
FDCAN1_IT0_IRQHandler                             build/startup_stm32h750xx.o
FDCAN1_IT1_IRQHandler                             build/startup_stm32h750xx.o
FDCAN2_IT0_IRQHandler                             build/startup_stm32h750xx.o
FDCAN2_IT1_IRQHandler                             build/startup_stm32h750xx.o
FDCAN_CAL_IRQHandler                              build/startup_stm32h750xx.o
FLASH_CRC_WaitForLastOperation                    build/stm32h7xx_hal_flash.o
                                                  build/stm32h7xx_hal_flash_ex.o
FLASH_Erase_Sector                                build/stm32h7xx_hal_flash_ex.o
                                                  build/stm32h7xx_hal_flash.o
FLASH_IRQHandler                                  build/startup_stm32h750xx.o
FLASH_OB_WaitForLastOperation                     build/stm32h7xx_hal_flash.o
                                                  build/stm32h7xx_hal_flash_ex.o
FLASH_WaitForLastOperation                        build/stm32h7xx_hal_flash.o
                                                  build/stm32h7xx_hal_flash_ex.o
FMC_IRQHandler                                    build/startup_stm32h750xx.o
FPU_IRQHandler                                    build/startup_stm32h750xx.o
HAL_DBGMCU_DisableDBGSleepMode                    build/stm32h7xx_hal.o
HAL_DBGMCU_DisableDBGStandbyMode                  build/stm32h7xx_hal.o
HAL_DBGMCU_DisableDBGStopMode                     build/stm32h7xx_hal.o
HAL_DBGMCU_EnableDBGSleepMode                     build/stm32h7xx_hal.o
HAL_DBGMCU_EnableDBGStandbyMode                   build/stm32h7xx_hal.o
HAL_DBGMCU_EnableDBGStopMode                      build/stm32h7xx_hal.o
HAL_DMAEx_ChangeMemory                            build/stm32h7xx_hal_dma_ex.o
HAL_DMAEx_ConfigMuxRequestGenerator               build/stm32h7xx_hal_dma_ex.o
HAL_DMAEx_ConfigMuxSync                           build/stm32h7xx_hal_dma_ex.o
HAL_DMAEx_DisableMuxRequestGenerator              build/stm32h7xx_hal_dma_ex.o
HAL_DMAEx_EnableMuxRequestGenerator               build/stm32h7xx_hal_dma_ex.o
HAL_DMAEx_MUX_IRQHandler                          build/stm32h7xx_hal_dma_ex.o
HAL_DMAEx_MultiBufferStart                        build/stm32h7xx_hal_dma_ex.o
HAL_DMAEx_MultiBufferStart_IT                     build/stm32h7xx_hal_dma_ex.o
HAL_DMA_Abort                                     build/stm32h7xx_hal_dma.o
                                                  build/stm32h7xx_hal_uart.o
HAL_DMA_Abort_IT                                  build/stm32h7xx_hal_dma.o
                                                  build/stm32h7xx_hal_uart.o
                                                  build/stm32h7xx_hal_i2c.o
HAL_DMA_DeInit                                    build/stm32h7xx_hal_dma.o
                                                  build/usart.o
HAL_DMA_GetError                                  build/stm32h7xx_hal_dma.o
                                                  build/stm32h7xx_hal_uart.o
                                                  build/stm32h7xx_hal_i2c.o
HAL_DMA_GetState                                  build/stm32h7xx_hal_dma.o
                                                  build/stm32h7xx_hal_i2c.o
HAL_DMA_IRQHandler                                build/stm32h7xx_hal_dma.o
                                                  build/stm32h7xx_it.o
HAL_DMA_Init                                      build/stm32h7xx_hal_dma.o
                                                  build/usart.o
HAL_DMA_PollForTransfer                           build/stm32h7xx_hal_dma.o
HAL_DMA_RegisterCallback                          build/stm32h7xx_hal_dma.o
HAL_DMA_Start                                     build/stm32h7xx_hal_dma.o
HAL_DMA_Start_IT                                  build/stm32h7xx_hal_dma.o
                                                  build/bsp_uart.o
                                                  build/stm32h7xx_hal_uart.o
                                                  build/stm32h7xx_hal_i2c.o
HAL_DMA_UnRegisterCallback                        build/stm32h7xx_hal_dma.o
HAL_DeInit                                        build/stm32h7xx_hal.o
HAL_Delay                                         build/stm32h7xx_hal.o
HAL_DisableCompensationCell                       build/stm32h7xx_hal.o
HAL_DisableDomain3DBGStandbyMode                  build/stm32h7xx_hal.o
HAL_DisableDomain3DBGStopMode                     build/stm32h7xx_hal.o
HAL_EXTI_ClearConfigLine                          build/stm32h7xx_hal_exti.o
HAL_EXTI_ClearPending                             build/stm32h7xx_hal_exti.o
HAL_EXTI_D1_ClearFlag                             build/stm32h7xx_hal.o
HAL_EXTI_D1_EventInputConfig                      build/stm32h7xx_hal.o
HAL_EXTI_D3_EventInputConfig                      build/stm32h7xx_hal.o
HAL_EXTI_EdgeConfig                               build/stm32h7xx_hal.o
HAL_EXTI_GenerateSWI                              build/stm32h7xx_hal_exti.o
HAL_EXTI_GenerateSWInterrupt                      build/stm32h7xx_hal.o
HAL_EXTI_GetConfigLine                            build/stm32h7xx_hal_exti.o
HAL_EXTI_GetHandle                                build/stm32h7xx_hal_exti.o
HAL_EXTI_GetPending                               build/stm32h7xx_hal_exti.o
HAL_EXTI_IRQHandler                               build/stm32h7xx_hal_exti.o
HAL_EXTI_RegisterCallback                         build/stm32h7xx_hal_exti.o
HAL_EXTI_SetConfigLine                            build/stm32h7xx_hal_exti.o
HAL_EnableCompensationCell                        build/stm32h7xx_hal.o
                                                  build/bsp_clk.o
HAL_EnableDomain3DBGStandbyMode                   build/stm32h7xx_hal.o
HAL_EnableDomain3DBGStopMode                      build/stm32h7xx_hal.o
HAL_FLASHEx_ComputeCRC                            build/stm32h7xx_hal_flash_ex.o
HAL_FLASHEx_Erase                                 build/stm32h7xx_hal_flash_ex.o
HAL_FLASHEx_Erase_IT                              build/stm32h7xx_hal_flash_ex.o
HAL_FLASHEx_Lock_Bank1                            build/stm32h7xx_hal_flash_ex.o
HAL_FLASHEx_OBGetConfig                           build/stm32h7xx_hal_flash_ex.o
HAL_FLASHEx_OBProgram                             build/stm32h7xx_hal_flash_ex.o
HAL_FLASHEx_Unlock_Bank1                          build/stm32h7xx_hal_flash_ex.o
HAL_FLASH_EndOfOperationCallback                  build/stm32h7xx_hal_flash.o
HAL_FLASH_GetError                                build/stm32h7xx_hal_flash.o
HAL_FLASH_IRQHandler                              build/stm32h7xx_hal_flash.o
HAL_FLASH_Lock                                    build/stm32h7xx_hal_flash.o
HAL_FLASH_OB_Launch                               build/stm32h7xx_hal_flash.o
HAL_FLASH_OB_Lock                                 build/stm32h7xx_hal_flash.o
HAL_FLASH_OB_Unlock                               build/stm32h7xx_hal_flash.o
HAL_FLASH_OperationErrorCallback                  build/stm32h7xx_hal_flash.o
HAL_FLASH_Program                                 build/stm32h7xx_hal_flash.o
HAL_FLASH_Program_IT                              build/stm32h7xx_hal_flash.o
HAL_FLASH_Unlock                                  build/stm32h7xx_hal_flash.o
HAL_GPIO_DeInit                                   build/stm32h7xx_hal_gpio.o
                                                  build/usart.o
HAL_GPIO_EXTI_Callback                            build/stm32h7xx_hal_gpio.o
HAL_GPIO_EXTI_IRQHandler                          build/stm32h7xx_hal_gpio.o
HAL_GPIO_Init                                     build/stm32h7xx_hal_gpio.o
                                                  build/bsp_led.o
                                                  build/usart.o
                                                  build/gpio.o
                                                  build/stm32h7xx_hal_rcc.o
HAL_GPIO_LockPin                                  build/stm32h7xx_hal_gpio.o
HAL_GPIO_ReadPin                                  build/stm32h7xx_hal_gpio.o
HAL_GPIO_TogglePin                                build/stm32h7xx_hal_gpio.o
                                                  build/app_task.o
                                                  build/bsp_led.o
HAL_GPIO_WritePin                                 build/stm32h7xx_hal_gpio.o
                                                  build/bsp_led.o
                                                  build/gpio.o
HAL_GetCurrentCPUID                               build/stm32h7xx_hal_cortex.o
HAL_GetDEVID                                      build/stm32h7xx_hal.o
HAL_GetFMCMemorySwappingConfig                    build/stm32h7xx_hal.o
HAL_GetHalVersion                                 build/stm32h7xx_hal.o
HAL_GetREVID                                      build/stm32h7xx_hal.o
                                                  build/stm32h7xx_hal_rcc_ex.o
                                                  build/stm32h7xx_hal_rcc.o
HAL_GetTick                                       build/stm32h7xx_hal.o
                                                  build/stm32h7xx_hal_uart_ex.o
                                                  build/stm32h7xx_hal_uart.o
                                                  build/stm32h7xx_hal_i2c.o
                                                  build/stm32h7xx_hal_pwr_ex.o
                                                  build/stm32h7xx_hal_mdma.o
                                                  build/stm32h7xx_hal_dma.o
                                                  build/stm32h7xx_hal_flash.o
                                                  build/stm32h7xx_hal_rcc_ex.o
                                                  build/stm32h7xx_hal_rcc.o
HAL_GetTickFreq                                   build/stm32h7xx_hal.o
HAL_GetTickPrio                                   build/stm32h7xx_hal.o
HAL_GetUIDw0                                      build/stm32h7xx_hal.o
HAL_GetUIDw1                                      build/stm32h7xx_hal.o
HAL_GetUIDw2                                      build/stm32h7xx_hal.o
HAL_HSEM_ActivateNotification                     build/stm32h7xx_hal_hsem.o
HAL_HSEM_DeactivateNotification                   build/stm32h7xx_hal_hsem.o
HAL_HSEM_FastTake                                 build/stm32h7xx_hal_hsem.o
HAL_HSEM_FreeCallback                             build/stm32h7xx_hal_hsem.o
HAL_HSEM_GetClearKey                              build/stm32h7xx_hal_hsem.o
HAL_HSEM_IRQHandler                               build/stm32h7xx_hal_hsem.o
HAL_HSEM_IsSemTaken                               build/stm32h7xx_hal_hsem.o
HAL_HSEM_Release                                  build/stm32h7xx_hal_hsem.o
HAL_HSEM_ReleaseAll                               build/stm32h7xx_hal_hsem.o
HAL_HSEM_SetClearKey                              build/stm32h7xx_hal_hsem.o
HAL_HSEM_Take                                     build/stm32h7xx_hal_hsem.o
HAL_HalfDuplex_EnableReceiver                     build/stm32h7xx_hal_uart.o
HAL_HalfDuplex_EnableTransmitter                  build/stm32h7xx_hal_uart.o
HAL_HalfDuplex_Init                               build/stm32h7xx_hal_uart.o
HAL_I2CEx_ConfigAnalogFilter                      build/stm32h7xx_hal_i2c_ex.o
HAL_I2CEx_ConfigDigitalFilter                     build/stm32h7xx_hal_i2c_ex.o
HAL_I2CEx_DisableFastModePlus                     build/stm32h7xx_hal_i2c_ex.o
HAL_I2CEx_DisableWakeUp                           build/stm32h7xx_hal_i2c_ex.o
HAL_I2CEx_EnableFastModePlus                      build/stm32h7xx_hal_i2c_ex.o
HAL_I2CEx_EnableWakeUp                            build/stm32h7xx_hal_i2c_ex.o
HAL_I2C_AbortCpltCallback                         build/stm32h7xx_hal_i2c.o
HAL_I2C_AddrCallback                              build/stm32h7xx_hal_i2c.o
HAL_I2C_DeInit                                    build/stm32h7xx_hal_i2c.o
HAL_I2C_DisableListen_IT                          build/stm32h7xx_hal_i2c.o
HAL_I2C_ER_IRQHandler                             build/stm32h7xx_hal_i2c.o
HAL_I2C_EV_IRQHandler                             build/stm32h7xx_hal_i2c.o
HAL_I2C_EnableListen_IT                           build/stm32h7xx_hal_i2c.o
HAL_I2C_ErrorCallback                             build/stm32h7xx_hal_i2c.o
HAL_I2C_GetError                                  build/stm32h7xx_hal_i2c.o
HAL_I2C_GetMode                                   build/stm32h7xx_hal_i2c.o
HAL_I2C_GetState                                  build/stm32h7xx_hal_i2c.o
HAL_I2C_Init                                      build/stm32h7xx_hal_i2c.o
HAL_I2C_IsDeviceReady                             build/stm32h7xx_hal_i2c.o
HAL_I2C_ListenCpltCallback                        build/stm32h7xx_hal_i2c.o
HAL_I2C_MasterRxCpltCallback                      build/stm32h7xx_hal_i2c.o
HAL_I2C_MasterTxCpltCallback                      build/stm32h7xx_hal_i2c.o
HAL_I2C_Master_Abort_IT                           build/stm32h7xx_hal_i2c.o
HAL_I2C_Master_Receive                            build/stm32h7xx_hal_i2c.o
HAL_I2C_Master_Receive_DMA                        build/stm32h7xx_hal_i2c.o
HAL_I2C_Master_Receive_IT                         build/stm32h7xx_hal_i2c.o
HAL_I2C_Master_Seq_Receive_DMA                    build/stm32h7xx_hal_i2c.o
HAL_I2C_Master_Seq_Receive_IT                     build/stm32h7xx_hal_i2c.o
HAL_I2C_Master_Seq_Transmit_DMA                   build/stm32h7xx_hal_i2c.o
HAL_I2C_Master_Seq_Transmit_IT                    build/stm32h7xx_hal_i2c.o
HAL_I2C_Master_Transmit                           build/stm32h7xx_hal_i2c.o
HAL_I2C_Master_Transmit_DMA                       build/stm32h7xx_hal_i2c.o
HAL_I2C_Master_Transmit_IT                        build/stm32h7xx_hal_i2c.o
HAL_I2C_MemRxCpltCallback                         build/stm32h7xx_hal_i2c.o
HAL_I2C_MemTxCpltCallback                         build/stm32h7xx_hal_i2c.o
HAL_I2C_Mem_Read                                  build/stm32h7xx_hal_i2c.o
HAL_I2C_Mem_Read_DMA                              build/stm32h7xx_hal_i2c.o
HAL_I2C_Mem_Read_IT                               build/stm32h7xx_hal_i2c.o
HAL_I2C_Mem_Write                                 build/stm32h7xx_hal_i2c.o
HAL_I2C_Mem_Write_DMA                             build/stm32h7xx_hal_i2c.o
HAL_I2C_Mem_Write_IT                              build/stm32h7xx_hal_i2c.o
HAL_I2C_MspDeInit                                 build/stm32h7xx_hal_i2c.o
HAL_I2C_MspInit                                   build/stm32h7xx_hal_i2c.o
HAL_I2C_SlaveRxCpltCallback                       build/stm32h7xx_hal_i2c.o
HAL_I2C_SlaveTxCpltCallback                       build/stm32h7xx_hal_i2c.o
HAL_I2C_Slave_Receive                             build/stm32h7xx_hal_i2c.o
HAL_I2C_Slave_Receive_DMA                         build/stm32h7xx_hal_i2c.o
HAL_I2C_Slave_Receive_IT                          build/stm32h7xx_hal_i2c.o
HAL_I2C_Slave_Seq_Receive_DMA                     build/stm32h7xx_hal_i2c.o
HAL_I2C_Slave_Seq_Receive_IT                      build/stm32h7xx_hal_i2c.o
HAL_I2C_Slave_Seq_Transmit_DMA                    build/stm32h7xx_hal_i2c.o
HAL_I2C_Slave_Seq_Transmit_IT                     build/stm32h7xx_hal_i2c.o
HAL_I2C_Slave_Transmit                            build/stm32h7xx_hal_i2c.o
HAL_I2C_Slave_Transmit_DMA                        build/stm32h7xx_hal_i2c.o
HAL_I2C_Slave_Transmit_IT                         build/stm32h7xx_hal_i2c.o
HAL_IncTick                                       build/stm32h7xx_hal.o
                                                  build/stm32h7xx_it.o
HAL_Init                                          build/stm32h7xx_hal.o
                                                  build/app.o
HAL_InitTick                                      build/stm32h7xx_hal.o
                                                  build/stm32h7xx_hal_rcc.o
HAL_LIN_Init                                      build/stm32h7xx_hal_uart.o
HAL_LIN_SendBreak                                 build/stm32h7xx_hal_uart.o
HAL_MDMA_Abort                                    build/stm32h7xx_hal_mdma.o
HAL_MDMA_Abort_IT                                 build/stm32h7xx_hal_mdma.o
HAL_MDMA_ConfigPostRequestMask                    build/stm32h7xx_hal_mdma.o
HAL_MDMA_DeInit                                   build/stm32h7xx_hal_mdma.o
HAL_MDMA_GenerateSWRequest                        build/stm32h7xx_hal_mdma.o
HAL_MDMA_GetError                                 build/stm32h7xx_hal_mdma.o
HAL_MDMA_GetState                                 build/stm32h7xx_hal_mdma.o
HAL_MDMA_IRQHandler                               build/stm32h7xx_hal_mdma.o
HAL_MDMA_Init                                     build/stm32h7xx_hal_mdma.o
HAL_MDMA_LinkedList_AddNode                       build/stm32h7xx_hal_mdma.o
HAL_MDMA_LinkedList_CreateNode                    build/stm32h7xx_hal_mdma.o
HAL_MDMA_LinkedList_DisableCircularMode           build/stm32h7xx_hal_mdma.o
HAL_MDMA_LinkedList_EnableCircularMode            build/stm32h7xx_hal_mdma.o
HAL_MDMA_LinkedList_RemoveNode                    build/stm32h7xx_hal_mdma.o
HAL_MDMA_PollForTransfer                          build/stm32h7xx_hal_mdma.o
HAL_MDMA_RegisterCallback                         build/stm32h7xx_hal_mdma.o
HAL_MDMA_Start                                    build/stm32h7xx_hal_mdma.o
HAL_MDMA_Start_IT                                 build/stm32h7xx_hal_mdma.o
HAL_MDMA_UnRegisterCallback                       build/stm32h7xx_hal_mdma.o
HAL_MPU_ConfigRegion                              build/stm32h7xx_hal_cortex.o
HAL_MPU_Disable                                   build/stm32h7xx_hal_cortex.o
HAL_MPU_Enable                                    build/stm32h7xx_hal_cortex.o
HAL_MspDeInit                                     build/stm32h7xx_hal.o
HAL_MspInit                                       build/stm32h7xx_hal_msp.o
HAL_MultiProcessorEx_AddressLength_Set            build/stm32h7xx_hal_uart_ex.o
HAL_MultiProcessor_DisableMuteMode                build/stm32h7xx_hal_uart.o
HAL_MultiProcessor_EnableMuteMode                 build/stm32h7xx_hal_uart.o
HAL_MultiProcessor_EnterMuteMode                  build/stm32h7xx_hal_uart.o
HAL_MultiProcessor_Init                           build/stm32h7xx_hal_uart.o
HAL_NVIC_ClearPendingIRQ                          build/stm32h7xx_hal_cortex.o
HAL_NVIC_DisableIRQ                               build/stm32h7xx_hal_cortex.o
                                                  build/usart.o
HAL_NVIC_EnableIRQ                                build/stm32h7xx_hal_cortex.o
                                                  build/usart.o
                                                  build/dma.o
HAL_NVIC_GetActive                                build/stm32h7xx_hal_cortex.o
HAL_NVIC_GetPendingIRQ                            build/stm32h7xx_hal_cortex.o
HAL_NVIC_GetPriority                              build/stm32h7xx_hal_cortex.o
HAL_NVIC_GetPriorityGrouping                      build/stm32h7xx_hal_cortex.o
HAL_NVIC_SetPendingIRQ                            build/stm32h7xx_hal_cortex.o
HAL_NVIC_SetPriority                              build/stm32h7xx_hal_cortex.o
                                                  build/usart.o
                                                  build/dma.o
                                                  build/stm32h7xx_hal.o
HAL_NVIC_SetPriorityGrouping                      build/stm32h7xx_hal_cortex.o
                                                  build/stm32h7xx_hal.o
HAL_NVIC_SystemReset                              build/stm32h7xx_hal_cortex.o
HAL_PWREx_AVDCallback                             build/stm32h7xx_hal_pwr_ex.o
HAL_PWREx_ClearPendingEvent                       build/stm32h7xx_hal_pwr_ex.o
HAL_PWREx_ClearWakeupFlag                         build/stm32h7xx_hal_pwr_ex.o
HAL_PWREx_ConfigAVD                               build/stm32h7xx_hal_pwr_ex.o
HAL_PWREx_ConfigD3Domain                          build/stm32h7xx_hal_pwr_ex.o
HAL_PWREx_ConfigSupply                            build/stm32h7xx_hal_pwr_ex.o
                                                  build/app.o
                                                  build/bsp_clk.o
                                                  build/main.o
HAL_PWREx_ControlStopModeVoltageScaling           build/stm32h7xx_hal_pwr_ex.o
HAL_PWREx_ControlVoltageScaling                   build/stm32h7xx_hal_pwr_ex.o
HAL_PWREx_DisableAVD                              build/stm32h7xx_hal_pwr_ex.o
HAL_PWREx_DisableBatteryCharging                  build/stm32h7xx_hal_pwr_ex.o
HAL_PWREx_DisableBkUpReg                          build/stm32h7xx_hal_pwr_ex.o
HAL_PWREx_DisableFlashPowerDown                   build/stm32h7xx_hal_pwr_ex.o
HAL_PWREx_DisableMonitoring                       build/stm32h7xx_hal_pwr_ex.o
HAL_PWREx_DisableUSBReg                           build/stm32h7xx_hal_pwr_ex.o
HAL_PWREx_DisableUSBVoltageDetector               build/stm32h7xx_hal_pwr_ex.o
HAL_PWREx_DisableWakeUpPin                        build/stm32h7xx_hal_pwr_ex.o
HAL_PWREx_EnableAVD                               build/stm32h7xx_hal_pwr_ex.o
HAL_PWREx_EnableBatteryCharging                   build/stm32h7xx_hal_pwr_ex.o
HAL_PWREx_EnableBkUpReg                           build/stm32h7xx_hal_pwr_ex.o
HAL_PWREx_EnableFlashPowerDown                    build/stm32h7xx_hal_pwr_ex.o
HAL_PWREx_EnableMonitoring                        build/stm32h7xx_hal_pwr_ex.o
HAL_PWREx_EnableUSBReg                            build/stm32h7xx_hal_pwr_ex.o
HAL_PWREx_EnableUSBVoltageDetector                build/stm32h7xx_hal_pwr_ex.o
HAL_PWREx_EnableWakeUpPin                         build/stm32h7xx_hal_pwr_ex.o
HAL_PWREx_EnterSTANDBYMode                        build/stm32h7xx_hal_pwr_ex.o
HAL_PWREx_EnterSTOPMode                           build/stm32h7xx_hal_pwr_ex.o
HAL_PWREx_GetStopModeVoltageRange                 build/stm32h7xx_hal_pwr_ex.o
HAL_PWREx_GetSupplyConfig                         build/stm32h7xx_hal_pwr_ex.o
HAL_PWREx_GetTemperatureLevel                     build/stm32h7xx_hal_pwr_ex.o
HAL_PWREx_GetVBATLevel                            build/stm32h7xx_hal_pwr_ex.o
HAL_PWREx_GetVoltageRange                         build/stm32h7xx_hal_pwr_ex.o
HAL_PWREx_GetWakeupFlag                           build/stm32h7xx_hal_pwr_ex.o
HAL_PWREx_PVD_AVD_IRQHandler                      build/stm32h7xx_hal_pwr_ex.o
HAL_PWREx_WAKEUP_PIN_IRQHandler                   build/stm32h7xx_hal_pwr_ex.o
HAL_PWREx_WKUP1_Callback                          build/stm32h7xx_hal_pwr_ex.o
HAL_PWREx_WKUP2_Callback                          build/stm32h7xx_hal_pwr_ex.o
HAL_PWREx_WKUP3_Callback                          build/stm32h7xx_hal_pwr_ex.o
HAL_PWREx_WKUP4_Callback                          build/stm32h7xx_hal_pwr_ex.o
HAL_PWREx_WKUP5_Callback                          build/stm32h7xx_hal_pwr_ex.o
HAL_PWREx_WKUP6_Callback                          build/stm32h7xx_hal_pwr_ex.o
HAL_PWR_ConfigPVD                                 build/stm32h7xx_hal_pwr.o
HAL_PWR_DeInit                                    build/stm32h7xx_hal_pwr.o
HAL_PWR_DisableBkUpAccess                         build/stm32h7xx_hal_pwr.o
HAL_PWR_DisablePVD                                build/stm32h7xx_hal_pwr.o
HAL_PWR_DisableSEVOnPend                          build/stm32h7xx_hal_pwr.o
HAL_PWR_DisableSleepOnExit                        build/stm32h7xx_hal_pwr.o
HAL_PWR_DisableWakeUpPin                          build/stm32h7xx_hal_pwr.o
HAL_PWR_EnableBkUpAccess                          build/stm32h7xx_hal_pwr.o
HAL_PWR_EnablePVD                                 build/stm32h7xx_hal_pwr.o
HAL_PWR_EnableSEVOnPend                           build/stm32h7xx_hal_pwr.o
HAL_PWR_EnableSleepOnExit                         build/stm32h7xx_hal_pwr.o
HAL_PWR_EnableWakeUpPin                           build/stm32h7xx_hal_pwr.o
HAL_PWR_EnterSLEEPMode                            build/stm32h7xx_hal_pwr.o
HAL_PWR_EnterSTANDBYMode                          build/stm32h7xx_hal_pwr.o
HAL_PWR_EnterSTOPMode                             build/stm32h7xx_hal_pwr.o
HAL_PWR_PVDCallback                               build/stm32h7xx_hal_pwr.o
                                                  build/stm32h7xx_hal_pwr_ex.o
HAL_PWR_PVD_IRQHandler                            build/stm32h7xx_hal_pwr.o
HAL_RCCEx_CRSConfig                               build/stm32h7xx_hal_rcc_ex.o
HAL_RCCEx_CRSGetSynchronizationInfo               build/stm32h7xx_hal_rcc_ex.o
HAL_RCCEx_CRSSoftwareSynchronizationGenerate      build/stm32h7xx_hal_rcc_ex.o
HAL_RCCEx_CRSWaitSynchronization                  build/stm32h7xx_hal_rcc_ex.o
HAL_RCCEx_CRS_ErrorCallback                       build/stm32h7xx_hal_rcc_ex.o
HAL_RCCEx_CRS_ExpectedSyncCallback                build/stm32h7xx_hal_rcc_ex.o
HAL_RCCEx_CRS_IRQHandler                          build/stm32h7xx_hal_rcc_ex.o
HAL_RCCEx_CRS_SyncOkCallback                      build/stm32h7xx_hal_rcc_ex.o
HAL_RCCEx_CRS_SyncWarnCallback                    build/stm32h7xx_hal_rcc_ex.o
HAL_RCCEx_DisableLSECSS                           build/stm32h7xx_hal_rcc_ex.o
HAL_RCCEx_EnableLSECSS                            build/stm32h7xx_hal_rcc_ex.o
HAL_RCCEx_EnableLSECSS_IT                         build/stm32h7xx_hal_rcc_ex.o
HAL_RCCEx_GetD1PCLK1Freq                          build/stm32h7xx_hal_rcc_ex.o
HAL_RCCEx_GetD1SysClockFreq                       build/stm32h7xx_hal_rcc_ex.o
HAL_RCCEx_GetD3PCLK1Freq                          build/stm32h7xx_hal_rcc_ex.o
                                                  build/stm32h7xx_hal_uart.o
HAL_RCCEx_GetPLL1ClockFreq                        build/stm32h7xx_hal_rcc_ex.o
HAL_RCCEx_GetPLL2ClockFreq                        build/stm32h7xx_hal_rcc_ex.o
                                                  build/stm32h7xx_hal_uart.o
HAL_RCCEx_GetPLL3ClockFreq                        build/stm32h7xx_hal_rcc_ex.o
                                                  build/stm32h7xx_hal_uart.o
HAL_RCCEx_GetPeriphCLKConfig                      build/stm32h7xx_hal_rcc_ex.o
HAL_RCCEx_GetPeriphCLKFreq                        build/stm32h7xx_hal_rcc_ex.o
HAL_RCCEx_KerWakeUpStopCLKConfig                  build/stm32h7xx_hal_rcc_ex.o
HAL_RCCEx_LSECSS_Callback                         build/stm32h7xx_hal_rcc_ex.o
HAL_RCCEx_LSECSS_IRQHandler                       build/stm32h7xx_hal_rcc_ex.o
HAL_RCCEx_PeriphCLKConfig                         build/stm32h7xx_hal_rcc_ex.o
                                                  build/usart.o
HAL_RCCEx_WWDGxSysResetConfig                     build/stm32h7xx_hal_rcc_ex.o
HAL_RCCEx_WakeUpStopCLKConfig                     build/stm32h7xx_hal_rcc_ex.o
HAL_RCC_CSSCallback                               build/stm32h7xx_hal_rcc.o
HAL_RCC_ClockConfig                               build/stm32h7xx_hal_rcc.o
                                                  build/app.o
                                                  build/bsp_clk.o
                                                  build/main.o
HAL_RCC_DeInit                                    build/stm32h7xx_hal_rcc.o
HAL_RCC_DisableCSS                                build/stm32h7xx_hal_rcc.o
HAL_RCC_EnableCSS                                 build/stm32h7xx_hal_rcc.o
HAL_RCC_GetClockConfig                            build/stm32h7xx_hal_rcc.o
HAL_RCC_GetHCLKFreq                               build/stm32h7xx_hal_rcc.o
                                                  build/bsp_clk.o
                                                  build/stm32h7xx_hal_rcc_ex.o
HAL_RCC_GetOscConfig                              build/stm32h7xx_hal_rcc.o
HAL_RCC_GetPCLK1Freq                              build/stm32h7xx_hal_rcc.o
                                                  build/bsp_clk.o
                                                  build/stm32h7xx_hal_uart.o
HAL_RCC_GetPCLK2Freq                              build/stm32h7xx_hal_rcc.o
                                                  build/bsp_clk.o
                                                  build/stm32h7xx_hal_uart.o
HAL_RCC_GetSysClockFreq                           build/stm32h7xx_hal_rcc.o
                                                  build/bsp_clk.o
                                                  build/stm32h7xx_hal.o
                                                  build/stm32h7xx_hal_rcc_ex.o
HAL_RCC_MCOConfig                                 build/stm32h7xx_hal_rcc.o
HAL_RCC_NMI_IRQHandler                            build/stm32h7xx_hal_rcc.o
HAL_RCC_OscConfig                                 build/stm32h7xx_hal_rcc.o
                                                  build/app.o
                                                  build/bsp_clk.o
                                                  build/main.o
HAL_RS485Ex_Init                                  build/stm32h7xx_hal_uart_ex.o
HAL_ResumeTick                                    build/stm32h7xx_hal.o
HAL_SYSCFG_AnalogSwitchConfig                     build/stm32h7xx_hal.o
HAL_SYSCFG_CM7BootAddConfig                       build/stm32h7xx_hal.o
HAL_SYSCFG_CompensationCodeConfig                 build/stm32h7xx_hal.o
HAL_SYSCFG_CompensationCodeSelect                 build/stm32h7xx_hal.o
HAL_SYSCFG_DisableBOOST                           build/stm32h7xx_hal.o
HAL_SYSCFG_DisableIOSpeedOptimize                 build/stm32h7xx_hal.o
HAL_SYSCFG_DisableVREFBUF                         build/stm32h7xx_hal.o
HAL_SYSCFG_ETHInterfaceSelect                     build/stm32h7xx_hal.o
HAL_SYSCFG_EnableBOOST                            build/stm32h7xx_hal.o
HAL_SYSCFG_EnableIOSpeedOptimize                  build/stm32h7xx_hal.o
HAL_SYSCFG_EnableVREFBUF                          build/stm32h7xx_hal.o
HAL_SYSCFG_VREFBUF_HighImpedanceConfig            build/stm32h7xx_hal.o
HAL_SYSCFG_VREFBUF_TrimmingConfig                 build/stm32h7xx_hal.o
HAL_SYSCFG_VREFBUF_VoltageScalingConfig           build/stm32h7xx_hal.o
HAL_SYSTICK_CLKSourceConfig                       build/stm32h7xx_hal_cortex.o
HAL_SYSTICK_Callback                              build/stm32h7xx_hal_cortex.o
HAL_SYSTICK_Config                                build/stm32h7xx_hal_cortex.o
                                                  build/stm32h7xx_hal.o
HAL_SYSTICK_IRQHandler                            build/stm32h7xx_hal_cortex.o
HAL_SetFMCMemorySwappingConfig                    build/stm32h7xx_hal.o
HAL_SetTickFreq                                   build/stm32h7xx_hal.o
HAL_SuspendTick                                   build/stm32h7xx_hal.o
HAL_UARTEx_DisableFifoMode                        build/stm32h7xx_hal_uart_ex.o
HAL_UARTEx_DisableStopMode                        build/stm32h7xx_hal_uart_ex.o
HAL_UARTEx_EnableFifoMode                         build/stm32h7xx_hal_uart_ex.o
                                                  build/usart.o
HAL_UARTEx_EnableStopMode                         build/stm32h7xx_hal_uart_ex.o
HAL_UARTEx_RxFifoFullCallback                     build/stm32h7xx_hal_uart_ex.o
                                                  build/stm32h7xx_hal_uart.o
HAL_UARTEx_SetRxFifoThreshold                     build/stm32h7xx_hal_uart_ex.o
                                                  build/usart.o
HAL_UARTEx_SetTxFifoThreshold                     build/stm32h7xx_hal_uart_ex.o
                                                  build/usart.o
HAL_UARTEx_StopModeWakeUpSourceConfig             build/stm32h7xx_hal_uart_ex.o
HAL_UARTEx_TxFifoEmptyCallback                    build/stm32h7xx_hal_uart_ex.o
                                                  build/stm32h7xx_hal_uart.o
HAL_UARTEx_WakeupCallback                         build/stm32h7xx_hal_uart_ex.o
                                                  build/stm32h7xx_hal_uart.o
HAL_UART_Abort                                    build/stm32h7xx_hal_uart.o
HAL_UART_AbortCpltCallback                        build/stm32h7xx_hal_uart.o
HAL_UART_AbortReceive                             build/stm32h7xx_hal_uart.o
HAL_UART_AbortReceiveCpltCallback                 build/stm32h7xx_hal_uart.o
HAL_UART_AbortReceive_IT                          build/stm32h7xx_hal_uart.o
HAL_UART_AbortTransmit                            build/stm32h7xx_hal_uart.o
HAL_UART_AbortTransmitCpltCallback                build/stm32h7xx_hal_uart.o
HAL_UART_AbortTransmit_IT                         build/stm32h7xx_hal_uart.o
HAL_UART_Abort_IT                                 build/stm32h7xx_hal_uart.o
HAL_UART_DMAPause                                 build/stm32h7xx_hal_uart.o
HAL_UART_DMAResume                                build/stm32h7xx_hal_uart.o
HAL_UART_DMAStop                                  build/stm32h7xx_hal_uart.o
HAL_UART_DeInit                                   build/stm32h7xx_hal_uart.o
HAL_UART_DisableReceiverTimeout                   build/stm32h7xx_hal_uart.o
HAL_UART_EnableReceiverTimeout                    build/stm32h7xx_hal_uart.o
HAL_UART_ErrorCallback                            build/stm32h7xx_hal_uart.o
HAL_UART_GetError                                 build/stm32h7xx_hal_uart.o
HAL_UART_GetState                                 build/stm32h7xx_hal_uart.o
HAL_UART_IRQHandler                               build/stm32h7xx_hal_uart.o
                                                  build/stm32h7xx_it.o
HAL_UART_Init                                     build/stm32h7xx_hal_uart.o
                                                  build/usart.o
HAL_UART_MspDeInit                                build/usart.o
HAL_UART_MspInit                                  build/usart.o
                                                  build/stm32h7xx_hal_uart_ex.o
HAL_UART_Receive                                  build/stm32h7xx_hal_uart.o
HAL_UART_Receive_DMA                              build/stm32h7xx_hal_uart.o
                                                  build/bsp_uart.o
HAL_UART_Receive_IT                               build/stm32h7xx_hal_uart.o
HAL_UART_ReceiverTimeout_Config                   build/stm32h7xx_hal_uart.o
HAL_UART_RxCpltCallback                           build/stm32h7xx_hal_uart.o
HAL_UART_RxHalfCpltCallback                       build/stm32h7xx_hal_uart.o
HAL_UART_Transmit                                 build/stm32h7xx_hal_uart.o
                                                  build/bsp_uart.o
HAL_UART_Transmit_DMA                             build/stm32h7xx_hal_uart.o
HAL_UART_Transmit_IT                              build/stm32h7xx_hal_uart.o
HAL_UART_TxCpltCallback                           build/stm32h7xx_hal_uart.o
HAL_UART_TxHalfCpltCallback                       build/stm32h7xx_hal_uart.o
HASH_RNG_IRQHandler                               build/startup_stm32h750xx.o
HRTIM1_FLT_IRQHandler                             build/startup_stm32h750xx.o
HRTIM1_Master_IRQHandler                          build/startup_stm32h750xx.o
HRTIM1_TIMA_IRQHandler                            build/startup_stm32h750xx.o
HRTIM1_TIMB_IRQHandler                            build/startup_stm32h750xx.o
HRTIM1_TIMC_IRQHandler                            build/startup_stm32h750xx.o
HRTIM1_TIMD_IRQHandler                            build/startup_stm32h750xx.o
HRTIM1_TIME_IRQHandler                            build/startup_stm32h750xx.o
HSEM1_IRQHandler                                  build/startup_stm32h750xx.o
HardFault_Handler                                 build/stm32h7xx_it.o
I2C1_ER_IRQHandler                                build/startup_stm32h750xx.o
I2C1_EV_IRQHandler                                build/startup_stm32h750xx.o
I2C2_ER_IRQHandler                                build/startup_stm32h750xx.o
I2C2_EV_IRQHandler                                build/startup_stm32h750xx.o
I2C3_ER_IRQHandler                                build/startup_stm32h750xx.o
I2C3_EV_IRQHandler                                build/startup_stm32h750xx.o
I2C4_ER_IRQHandler                                build/startup_stm32h750xx.o
I2C4_EV_IRQHandler                                build/startup_stm32h750xx.o
JPEG_IRQHandler                                   build/startup_stm32h750xx.o
LPTIM1_IRQHandler                                 build/startup_stm32h750xx.o
LPTIM2_IRQHandler                                 build/startup_stm32h750xx.o
LPTIM3_IRQHandler                                 build/startup_stm32h750xx.o
LPTIM4_IRQHandler                                 build/startup_stm32h750xx.o
LPTIM5_IRQHandler                                 build/startup_stm32h750xx.o
LPUART1_IRQHandler                                build/startup_stm32h750xx.o
LTDC_ER_IRQHandler                                build/startup_stm32h750xx.o
LTDC_IRQHandler                                   build/startup_stm32h750xx.o
MDIOS_IRQHandler                                  build/startup_stm32h750xx.o
MDIOS_WKUP_IRQHandler                             build/startup_stm32h750xx.o
MDMA_IRQHandler                                   build/startup_stm32h750xx.o
MX_DMA_Init                                       build/dma.o
                                                  build/app.o
MX_GPIO_Init                                      build/gpio.o
                                                  build/app.o
MX_UART4_Init                                     build/usart.o
                                                  build/bsp_uart.o
Math_Init                                         build/lib_math.o
Math_Rand                                         build/lib_math.o
Math_RandSeed                                     build/lib_math.o
Math_RandSeedCur                                  build/lib_math.o
Math_RandSetSeed                                  build/lib_math.o
MemManage_Handler                                 build/stm32h7xx_it.o
Mem_Clr                                           build/lib_mem.o
Mem_Cmp                                           build/lib_mem.o
Mem_Copy                                          build/lib_mem.o
Mem_DynPoolBlkFree                                build/lib_mem.o
Mem_DynPoolBlkGet                                 build/lib_mem.o
Mem_DynPoolBlkNbrAvailGet                         build/lib_mem.o
Mem_DynPoolCreate                                 build/lib_mem.o
Mem_DynPoolCreateHW                               build/lib_mem.o
Mem_Init                                          build/lib_mem.o
Mem_Move                                          build/lib_mem.o
Mem_SegAlloc                                      build/lib_mem.o
Mem_SegAllocExt                                   build/lib_mem.o
Mem_SegAllocHW                                    build/lib_mem.o
Mem_SegClr                                        build/lib_mem.o
Mem_SegCreate                                     build/lib_mem.o
Mem_SegHeadPtr                                    build/lib_mem.o
Mem_SegRemSizeGet                                 build/lib_mem.o
Mem_Set                                           build/lib_mem.o
MyTaskTCB                                         build/app_task.o
My_Task(void*)                                    build/app_task.o
NMI_Handler                                       build/stm32h7xx_it.o
OSCfg_DataSizeRAM                                 build/os_cfg_app.o
OSCfg_ISRStk                                      build/os_cfg_app.o
OSCfg_ISRStkBasePtr                               build/os_cfg_app.o
                                                  build/os_core.o
                                                  build/os_cpu_c.o
OSCfg_ISRStkSize                                  build/os_cfg_app.o
                                                  build/os_core.o
                                                  build/os_cpu_c.o
OSCfg_ISRStkSizeRAM                               build/os_cfg_app.o
OSCfg_IdleTaskStk                                 build/os_cfg_app.o
OSCfg_IdleTaskStkBasePtr                          build/os_cfg_app.o
                                                  build/os_core.o
OSCfg_IdleTaskStkLimit                            build/os_cfg_app.o
                                                  build/os_core.o
OSCfg_IdleTaskStkSize                             build/os_cfg_app.o
                                                  build/os_core.o
OSCfg_IdleTaskStkSizeRAM                          build/os_cfg_app.o
OSCfg_Init                                        build/os_cfg_app.o
                                                  build/os_core.o
OSCfg_MsgPool                                     build/os_cfg_app.o
OSCfg_MsgPoolBasePtr                              build/os_cfg_app.o
                                                  build/os_msg.o
OSCfg_MsgPoolSize                                 build/os_cfg_app.o
                                                  build/os_msg.o
OSCfg_MsgPoolSizeRAM                              build/os_cfg_app.o
OSCfg_StatTaskPrio                                build/os_cfg_app.o
                                                  build/os_stat.o
OSCfg_StatTaskRate_Hz                             build/os_cfg_app.o
                                                  build/os_stat.o
OSCfg_StatTaskStk                                 build/os_cfg_app.o
OSCfg_StatTaskStkBasePtr                          build/os_cfg_app.o
                                                  build/os_stat.o
OSCfg_StatTaskStkLimit                            build/os_cfg_app.o
                                                  build/os_stat.o
OSCfg_StatTaskStkSize                             build/os_cfg_app.o
                                                  build/os_stat.o
OSCfg_StatTaskStkSizeRAM                          build/os_cfg_app.o
OSCfg_StkSizeMin                                  build/os_cfg_app.o
                                                  build/os_tmr.o
                                                  build/os_tick.o
                                                  build/os_task.o
                                                  build/os_stat.o
OSCfg_TickRate_Hz                                 build/os_cfg_app.o
                                                  build/os_tmr.o
                                                  build/os_time.o
                                                  build/os_stat.o
                                                  build/os_core.o
                                                  build/os_cpu_c.o
OSCfg_TickTaskPrio                                build/os_cfg_app.o
                                                  build/os_tick.o
OSCfg_TickTaskStk                                 build/os_cfg_app.o
OSCfg_TickTaskStkBasePtr                          build/os_cfg_app.o
                                                  build/os_tick.o
OSCfg_TickTaskStkLimit                            build/os_cfg_app.o
                                                  build/os_tick.o
OSCfg_TickTaskStkSize                             build/os_cfg_app.o
                                                  build/os_tick.o
OSCfg_TickTaskStkSizeRAM                          build/os_cfg_app.o
OSCfg_TmrTaskPrio                                 build/os_cfg_app.o
                                                  build/os_tmr.o
OSCfg_TmrTaskRate_Hz                              build/os_cfg_app.o
                                                  build/os_tmr.o
OSCfg_TmrTaskStk                                  build/os_cfg_app.o
OSCfg_TmrTaskStkBasePtr                           build/os_cfg_app.o
                                                  build/os_tmr.o
OSCfg_TmrTaskStkLimit                             build/os_cfg_app.o
                                                  build/os_tmr.o
OSCfg_TmrTaskStkSize                              build/os_cfg_app.o
                                                  build/os_tmr.o
OSCfg_TmrTaskStkSizeRAM                           build/os_cfg_app.o
OSCtxSw                                           build/os_cpu_a.o
                                                  build/os_core.o
OSDbg_DbgEn                                       build/os_dbg.o
OSFlagCreate                                      build/os_flag.o
OSFlagDel                                         build/os_flag.o
OSFlagPend                                        build/os_flag.o
OSFlagPendAbort                                   build/os_flag.o
OSFlagPendGetFlagsRdy                             build/os_flag.o
OSFlagPost                                        build/os_flag.o
OSIdleTaskHook                                    build/os_cpu_c.o
                                                  build/os_core.o
OSIdleTaskTCB                                     build/os_var.o
                                                  build/os_task.o
                                                  build/os_core.o
OSInit                                            build/os_core.o
                                                  build/app.o
OSInitHook                                        build/os_cpu_c.o
                                                  build/os_core.o
OSInitialized                                     build/os_var.o
                                                  build/os_core.o
OSIntCtxSw                                        build/os_cpu_a.o
                                                  build/os_core.o
OSIntEnter                                        build/os_core.o
                                                  build/os_cpu_c.o
OSIntExit                                         build/os_core.o
                                                  build/os_cpu_c.o
OSIntNestingCtr                                   build/os_var.o
                                                  build/os_tmr.o
                                                  build/os_time.o
                                                  build/os_task.o
                                                  build/os_sem.o
                                                  build/os_q.o
                                                  build/os_mutex.o
                                                  build/os_mem.o
                                                  build/os_flag.o
                                                  build/os_core.o
OSMemCreate                                       build/os_mem.o
OSMemGet                                          build/os_mem.o
OSMemPut                                          build/os_mem.o
OSMsgPool                                         build/os_var.o
                                                  build/os_msg.o
OSMutexCreate                                     build/os_mutex.o
                                                  build/os_tmr.o
OSMutexDel                                        build/os_mutex.o
OSMutexPend                                       build/os_mutex.o
                                                  build/os_tmr.o
OSMutexPendAbort                                  build/os_mutex.o
OSMutexPost                                       build/os_mutex.o
                                                  build/os_tmr.o
OSPrioCur                                         build/os_var.o
                                                  build/os_cpu_a.o
                                                  build/os_time.o
                                                  build/os_mutex.o
                                                  build/os_core.o
OSPrioHighRdy                                     build/os_var.o
                                                  build/os_cpu_a.o
                                                  build/os_core.o
OSPrioTbl                                         build/os_prio.o
OSQCreate                                         build/os_q.o
OSQDel                                            build/os_q.o
OSQFlush                                          build/os_q.o
OSQPend                                           build/os_q.o
OSQPendAbort                                      build/os_q.o
OSQPost                                           build/os_q.o
OSRdyList                                         build/os_var.o
                                                  build/os_time.o
                                                  build/os_core.o
OSRunning                                         build/os_var.o
                                                  build/os_tmr.o
                                                  build/os_time.o
                                                  build/os_task.o
                                                  build/os_stat.o
                                                  build/os_sem.o
                                                  build/os_q.o
                                                  build/os_mutex.o
                                                  build/os_flag.o
                                                  build/os_core.o
OSSched                                           build/os_core.o
                                                  build/os_time.o
                                                  build/os_task.o
                                                  build/os_sem.o
                                                  build/os_q.o
                                                  build/os_mutex.o
                                                  build/os_flag.o
OSSchedLock                                       build/os_core.o
                                                  build/os_tmr.o
OSSchedLockNestingCtr                             build/os_var.o
                                                  build/os_time.o
                                                  build/os_task.o
                                                  build/os_sem.o
                                                  build/os_q.o
                                                  build/os_mutex.o
                                                  build/os_flag.o
                                                  build/os_core.o
OSSchedRoundRobinCfg                              build/os_core.o
OSSchedRoundRobinDfltTimeQuanta                   build/os_var.o
                                                  build/os_task.o
                                                  build/os_core.o
OSSchedRoundRobinEn                               build/os_var.o
                                                  build/os_core.o
OSSchedRoundRobinYield                            build/os_core.o
OSSchedUnlock                                     build/os_core.o
                                                  build/os_tmr.o
OSSemCreate                                       build/os_sem.o
OSSemDel                                          build/os_sem.o
OSSemPend                                         build/os_sem.o
OSSemPendAbort                                    build/os_sem.o
OSSemPost                                         build/os_sem.o
OSSemSet                                          build/os_sem.o
OSStart                                           build/os_core.o
                                                  build/app.o
OSStartHighRdy                                    build/os_cpu_a.o
                                                  build/os_core.o
OSStatReset                                       build/os_stat.o
OSStatResetFlag                                   build/os_var.o
                                                  build/os_stat.o
OSStatTaskCPUUsage                                build/os_var.o
                                                  build/os_stat.o
OSStatTaskCPUUsageInit                            build/os_stat.o
OSStatTaskCPUUsageMax                             build/os_var.o
                                                  build/os_stat.o
OSStatTaskCtr                                     build/os_var.o
                                                  build/os_stat.o
                                                  build/os_core.o
OSStatTaskCtrMax                                  build/os_var.o
                                                  build/os_stat.o
OSStatTaskCtrRun                                  build/os_var.o
                                                  build/os_stat.o
OSStatTaskHook                                    build/os_cpu_c.o
                                                  build/os_stat.o
OSStatTaskRdy                                     build/os_var.o
                                                  build/os_stat.o
OSStatTaskTCB                                     build/os_var.o
                                                  build/os_stat.o
OSTCBCurPtr                                       build/os_var.o
                                                  build/os_cpu_a.o
                                                  build/os_time.o
                                                  build/os_task.o
                                                  build/os_sem.o
                                                  build/os_q.o
                                                  build/os_mutex.o
                                                  build/os_flag.o
                                                  build/os_core.o
                                                  build/os_cpu_c.o
OSTCBHighRdyPtr                                   build/os_var.o
                                                  build/os_cpu_a.o
                                                  build/os_core.o
                                                  build/os_cpu_c.o
OSTaskChangePrio                                  build/os_task.o
OSTaskCreate                                      build/os_task.o
                                                  build/app_task.o
                                                  build/app.o
                                                  build/os_tmr.o
                                                  build/os_tick.o
                                                  build/os_stat.o
                                                  build/os_core.o
OSTaskCreateHook                                  build/os_cpu_c.o
                                                  build/os_task.o
OSTaskCtxSwCtr                                    build/os_var.o
                                                  build/os_task.o
                                                  build/os_core.o
OSTaskDel                                         build/os_task.o
OSTaskDelHook                                     build/os_cpu_c.o
                                                  build/os_task.o
OSTaskQFlush                                      build/os_task.o
OSTaskQPend                                       build/os_task.o
OSTaskQPendAbort                                  build/os_task.o
OSTaskQPost                                       build/os_task.o
OSTaskQty                                         build/os_var.o
                                                  build/os_task.o
                                                  build/os_core.o
OSTaskRegGet                                      build/os_task.o
OSTaskRegGetID                                    build/os_task.o
OSTaskRegNextAvailID                              build/os_var.o
                                                  build/os_task.o
                                                  build/os_core.o
OSTaskRegSet                                      build/os_task.o
OSTaskResume                                      build/os_task.o
                                                  build/os_stat.o
OSTaskReturnHook                                  build/os_cpu_c.o
                                                  build/os_task.o
OSTaskSemPend                                     build/os_task.o
                                                  build/os_tmr.o
                                                  build/os_tick.o
OSTaskSemPendAbort                                build/os_task.o
OSTaskSemPost                                     build/os_task.o
                                                  build/os_time.o
OSTaskSemSet                                      build/os_task.o
OSTaskStkChk                                      build/os_task.o
OSTaskStkInit                                     build/os_cpu_c.o
                                                  build/os_task.o
OSTaskSuspend                                     build/os_task.o
                                                  build/os_stat.o
OSTaskSwHook                                      build/os_cpu_c.o
                                                  build/os_cpu_a.o
OSTaskTimeQuantaSet                               build/os_task.o
OSTickCtr                                         build/os_var.o
                                                  build/os_tick.o
                                                  build/os_time.o
OSTickListDly                                     build/os_var.o
                                                  build/os_tick.o
OSTickListTimeout                                 build/os_var.o
                                                  build/os_tick.o
                                                  build/os_core.o
OSTickTaskTCB                                     build/os_var.o
                                                  build/os_tick.o
                                                  build/os_time.o
OSTimeDly                                         build/os_time.o
                                                  build/bsp_uart.o
                                                  build/app_task.o
                                                  build/os_stat.o
OSTimeDlyHMSM                                     build/os_time.o
OSTimeDlyResume                                   build/os_time.o
OSTimeGet                                         build/os_time.o
OSTimeSet                                         build/os_time.o
OSTimeTick                                        build/os_time.o
                                                  build/os_cpu_c.o
OSTimeTickHook                                    build/os_cpu_c.o
                                                  build/os_time.o
OSTmrCreate                                       build/os_tmr.o
OSTmrDel                                          build/os_tmr.o
OSTmrListPtr                                      build/os_var.o
                                                  build/os_tmr.o
OSTmrMutex                                        build/os_var.o
                                                  build/os_tmr.o
OSTmrRemainGet                                    build/os_tmr.o
OSTmrSet                                          build/os_tmr.o
OSTmrStart                                        build/os_tmr.o
OSTmrStateGet                                     build/os_tmr.o
OSTmrStop                                         build/os_tmr.o
OSTmrTaskTCB                                      build/os_var.o
                                                  build/os_tmr.o
                                                  build/os_time.o
                                                  build/os_stat.o
OSTmrTickCtr                                      build/os_var.o
                                                  build/os_tmr.o
OSTmrUpdateCnt                                    build/os_var.o
                                                  build/os_tmr.o
                                                  build/os_time.o
OSTmrUpdateCtr                                    build/os_var.o
                                                  build/os_tmr.o
                                                  build/os_time.o
OSVersion                                         build/os_core.o
OS_AppIdleTaskHookPtr                             build/os_var.o
                                                  build/os_core.o
                                                  build/os_cpu_c.o
                                                  build/os_app_hooks.o
OS_AppStatTaskHookPtr                             build/os_var.o
                                                  build/os_core.o
                                                  build/os_cpu_c.o
                                                  build/os_app_hooks.o
OS_AppTaskCreateHookPtr                           build/os_var.o
                                                  build/os_core.o
                                                  build/os_cpu_c.o
                                                  build/os_app_hooks.o
OS_AppTaskDelHookPtr                              build/os_var.o
                                                  build/os_core.o
                                                  build/os_cpu_c.o
                                                  build/os_app_hooks.o
OS_AppTaskReturnHookPtr                           build/os_var.o
                                                  build/os_core.o
                                                  build/os_cpu_c.o
                                                  build/os_app_hooks.o
OS_AppTaskSwHookPtr                               build/os_var.o
                                                  build/os_core.o
                                                  build/os_cpu_c.o
                                                  build/os_app_hooks.o
OS_AppTimeTickHookPtr                             build/os_var.o
                                                  build/os_core.o
                                                  build/os_cpu_c.o
                                                  build/os_app_hooks.o
OS_CPU_ExceptStkBase                              build/os_cpu_c.o
                                                  build/os_cpu_a.o
OS_CPU_FP_Reg_Pop                                 build/os_cpu_a.o
                                                  build/os_cpu_c.o
OS_CPU_FP_Reg_Push                                build/os_cpu_a.o
                                                  build/os_cpu_c.o
OS_CPU_PendSVHandler                              build/os_cpu_a.o
                                                  build/startup_stm32h750xx.o
OS_CPU_SysTickHandler                             build/os_cpu_c.o
                                                  build/startup_stm32h750xx.o
OS_CPU_SysTickInit                                build/os_cpu_c.o
OS_CPU_SysTickInitFreq                            build/os_cpu_c.o
                                                  build/bsp_os.o
OS_FlagBlock                                      build/os_flag.o
OS_FlagClr                                        build/os_flag.o
OS_FlagTaskRdy                                    build/os_flag.o
OS_IdleTask                                       build/os_core.o
OS_IdleTaskInit                                   build/os_core.o
OS_MemInit                                        build/os_mem.o
                                                  build/os_core.o
OS_MsgPoolInit                                    build/os_msg.o
                                                  build/os_core.o
OS_MsgQFreeAll                                    build/os_msg.o
                                                  build/os_task.o
                                                  build/os_q.o
OS_MsgQGet                                        build/os_msg.o
                                                  build/os_task.o
                                                  build/os_q.o
OS_MsgQInit                                       build/os_msg.o
                                                  build/os_task.o
                                                  build/os_q.o
OS_MsgQPut                                        build/os_msg.o
                                                  build/os_task.o
                                                  build/os_q.o
OS_MutexClr                                       build/os_mutex.o
OS_MutexGrpAdd                                    build/os_mutex.o
OS_MutexGrpPostAll                                build/os_mutex.o
                                                  build/os_task.o
OS_MutexGrpPrioFindHighest                        build/os_mutex.o
                                                  build/os_tick.o
                                                  build/os_task.o
OS_MutexGrpRemove                                 build/os_mutex.o
OS_Pend                                           build/os_core.o
                                                  build/os_task.o
                                                  build/os_sem.o
                                                  build/os_q.o
                                                  build/os_mutex.o
                                                  build/os_flag.o
OS_PendAbort                                      build/os_core.o
                                                  build/os_task.o
                                                  build/os_sem.o
                                                  build/os_q.o
                                                  build/os_mutex.o
                                                  build/os_flag.o
OS_PendListChangePrio                             build/os_core.o
                                                  build/os_task.o
OS_PendListInit                                   build/os_core.o
                                                  build/os_sem.o
                                                  build/os_q.o
                                                  build/os_mutex.o
                                                  build/os_flag.o
OS_PendListInsertPrio                             build/os_core.o
OS_PendListRemove                                 build/os_core.o
                                                  build/os_tick.o
                                                  build/os_task.o
                                                  build/os_flag.o
OS_Post                                           build/os_core.o
                                                  build/os_task.o
                                                  build/os_sem.o
                                                  build/os_q.o
                                                  build/os_mutex.o
OS_PrioGetHighest                                 build/os_prio.o
                                                  build/os_core.o
OS_PrioInit                                       build/os_prio.o
                                                  build/os_core.o
OS_PrioInsert                                     build/os_prio.o
                                                  build/os_task.o
                                                  build/os_mutex.o
                                                  build/os_core.o
OS_PrioRemove                                     build/os_prio.o
                                                  build/os_core.o
OS_QClr                                           build/os_q.o
OS_RdyListInit                                    build/os_core.o
OS_RdyListInsert                                  build/os_core.o
                                                  build/os_tick.o
                                                  build/os_time.o
                                                  build/os_task.o
                                                  build/os_flag.o
OS_RdyListInsertHead                              build/os_core.o
                                                  build/os_task.o
OS_RdyListInsertTail                              build/os_core.o
                                                  build/os_task.o
                                                  build/os_mutex.o
OS_RdyListMoveHeadToTail                          build/os_core.o
OS_RdyListRemove                                  build/os_core.o
                                                  build/os_time.o
                                                  build/os_task.o
                                                  build/os_mutex.o
OS_SchedRoundRobin                                build/os_core.o
                                                  build/os_time.o
OS_SemClr                                         build/os_sem.o
OS_StatTask                                       build/os_stat.o
OS_StatTaskInit                                   build/os_stat.o
                                                  build/os_core.o
OS_TaskBlock                                      build/os_core.o
OS_TaskChangePrio                                 build/os_task.o
                                                  build/os_tick.o
                                                  build/os_mutex.o
OS_TaskInit                                       build/os_task.o
                                                  build/os_core.o
OS_TaskInitTCB                                    build/os_task.o
OS_TaskReturn                                     build/os_task.o
                                                  build/os_cpu_c.o
OS_TickListInsert                                 build/os_tick.o
                                                  build/os_core.o
OS_TickListInsertDly                              build/os_tick.o
                                                  build/os_time.o
OS_TickListRemove                                 build/os_tick.o
                                                  build/os_time.o
                                                  build/os_task.o
                                                  build/os_flag.o
                                                  build/os_core.o
OS_TickTask                                       build/os_tick.o
OS_TickTaskInit                                   build/os_tick.o
                                                  build/os_core.o
OS_TmrClr                                         build/os_tmr.o
OS_TmrInit                                        build/os_tmr.o
                                                  build/os_core.o
OS_TmrTask                                        build/os_tmr.o
OS_TmrUnlink                                      build/os_tmr.o
OTG_FS_EP1_IN_IRQHandler                          build/startup_stm32h750xx.o
OTG_FS_EP1_OUT_IRQHandler                         build/startup_stm32h750xx.o
OTG_FS_IRQHandler                                 build/startup_stm32h750xx.o
OTG_FS_WKUP_IRQHandler                            build/startup_stm32h750xx.o
OTG_HS_EP1_IN_IRQHandler                          build/startup_stm32h750xx.o
OTG_HS_EP1_OUT_IRQHandler                         build/startup_stm32h750xx.o
OTG_HS_IRQHandler                                 build/startup_stm32h750xx.o
OTG_HS_WKUP_IRQHandler                            build/startup_stm32h750xx.o
PVD_AVD_IRQHandler                                build/startup_stm32h750xx.o
PendSV_Handler                                    build/stm32h7xx_it.o
QUADSPI_IRQHandler                                build/startup_stm32h750xx.o
RCC_IRQHandler                                    build/startup_stm32h750xx.o
RTC_Alarm_IRQHandler                              build/startup_stm32h750xx.o
RTC_WKUP_IRQHandler                               build/startup_stm32h750xx.o
Reset_Handler                                     build/startup_stm32h750xx.o
SAI1_IRQHandler                                   build/startup_stm32h750xx.o
SAI2_IRQHandler                                   build/startup_stm32h750xx.o
SAI3_IRQHandler                                   build/startup_stm32h750xx.o
SAI4_IRQHandler                                   build/startup_stm32h750xx.o
SDMMC1_IRQHandler                                 build/startup_stm32h750xx.o
SDMMC2_IRQHandler                                 build/startup_stm32h750xx.o
SPDIF_RX_IRQHandler                               build/startup_stm32h750xx.o
SPI1_IRQHandler                                   build/startup_stm32h750xx.o
SPI2_IRQHandler                                   build/startup_stm32h750xx.o
SPI3_IRQHandler                                   build/startup_stm32h750xx.o
SPI4_IRQHandler                                   build/startup_stm32h750xx.o
SPI5_IRQHandler                                   build/startup_stm32h750xx.o
SPI6_IRQHandler                                   build/startup_stm32h750xx.o
SVC_Handler                                       build/stm32h7xx_it.o
SWPMI1_IRQHandler                                 build/startup_stm32h750xx.o
Start_Task(void*)                                 build/app_task.o
                                                  build/app.o
Str_Cat                                           build/lib_str.o
Str_Cat_N                                         build/lib_str.o
Str_Char                                          build/lib_str.o
Str_Char_Last                                     build/lib_str.o
Str_Char_Last_N                                   build/lib_str.o
Str_Char_N                                        build/lib_str.o
Str_Char_Replace                                  build/lib_str.o
Str_Char_Replace_N                                build/lib_str.o
Str_Cmp                                           build/lib_str.o
Str_CmpIgnoreCase                                 build/lib_str.o
Str_CmpIgnoreCase_N                               build/lib_str.o
Str_Cmp_N                                         build/lib_str.o
Str_Copy                                          build/lib_str.o
Str_Copy_N                                        build/lib_str.o
Str_FmtNbr_Int32S                                 build/lib_str.o
Str_FmtNbr_Int32U                                 build/lib_str.o
Str_Len                                           build/lib_str.o
Str_Len_N                                         build/lib_str.o
Str_ParseNbr_Int32S                               build/lib_str.o
Str_ParseNbr_Int32U                               build/lib_str.o
Str_Str                                           build/lib_str.o
Str_Str_N                                         build/lib_str.o
SysTick_Handler                                   build/stm32h7xx_it.o
SystemClock_Config                                build/main.o
SystemCoreClock                                   build/system_stm32h7xx.o
                                                  build/stm32h7xx_hal.o
                                                  build/stm32h7xx_hal_mdma.o
                                                  build/stm32h7xx_hal_dma.o
                                                  build/stm32h7xx_hal_rcc_ex.o
                                                  build/stm32h7xx_hal_rcc.o
SystemCoreClockUpdate                             build/system_stm32h7xx.o
SystemD2Clock                                     build/system_stm32h7xx.o
                                                  build/stm32h7xx_hal.o
                                                  build/stm32h7xx_hal_rcc_ex.o
                                                  build/stm32h7xx_hal_rcc.o
SystemInit                                        build/system_stm32h7xx.o
                                                  build/startup_stm32h750xx.o
TAMP_STAMP_IRQHandler                             build/startup_stm32h750xx.o
TIM15_IRQHandler                                  build/startup_stm32h750xx.o
TIM16_IRQHandler                                  build/startup_stm32h750xx.o
TIM17_IRQHandler                                  build/startup_stm32h750xx.o
TIM1_BRK_IRQHandler                               build/startup_stm32h750xx.o
TIM1_CC_IRQHandler                                build/startup_stm32h750xx.o
TIM1_TRG_COM_IRQHandler                           build/startup_stm32h750xx.o
TIM1_UP_IRQHandler                                build/startup_stm32h750xx.o
TIM2_IRQHandler                                   build/startup_stm32h750xx.o
TIM3_IRQHandler                                   build/startup_stm32h750xx.o
TIM4_IRQHandler                                   build/startup_stm32h750xx.o
TIM5_IRQHandler                                   build/startup_stm32h750xx.o
TIM6_DAC_IRQHandler                               build/startup_stm32h750xx.o
TIM7_IRQHandler                                   build/startup_stm32h750xx.o
TIM8_BRK_TIM12_IRQHandler                         build/startup_stm32h750xx.o
TIM8_CC_IRQHandler                                build/startup_stm32h750xx.o
TIM8_TRG_COM_TIM14_IRQHandler                     build/startup_stm32h750xx.o
TIM8_UP_TIM13_IRQHandler                          build/startup_stm32h750xx.o
UART4_IRQHandler                                  build/stm32h7xx_it.o
UART5_IRQHandler                                  build/startup_stm32h750xx.o
UART7_IRQHandler                                  build/startup_stm32h750xx.o
UART8_IRQHandler                                  build/startup_stm32h750xx.o
UARTPrescTable                                    build/stm32h7xx_hal_uart.o
UART_AdvFeatureConfig                             build/stm32h7xx_hal_uart.o
                                                  build/stm32h7xx_hal_uart_ex.o
UART_CheckIdleState                               build/stm32h7xx_hal_uart.o
                                                  build/stm32h7xx_hal_uart_ex.o
UART_SetConfig                                    build/stm32h7xx_hal_uart.o
                                                  build/stm32h7xx_hal_uart_ex.o
UART_WaitOnFlagUntilTimeout                       build/stm32h7xx_hal_uart.o
                                                  build/stm32h7xx_hal_uart_ex.o
USART1_IRQHandler                                 build/startup_stm32h750xx.o
USART2_IRQHandler                                 build/startup_stm32h750xx.o
USART3_IRQHandler                                 build/startup_stm32h750xx.o
USART6_IRQHandler                                 build/startup_stm32h750xx.o
UsageFault_Handler                                build/stm32h7xx_it.o
User_Uart_T::User_Uart_T()                        build/bsp_uart.o
User_Uart_T::User_Uart_T()                        build/bsp_uart.o
                                                  build/app.o
User_Uart_T::init()                               build/bsp_uart.o
                                                  build/app.o
User_Uart_T::m_send_Nchar(unsigned char*, unsigned long) build/bsp_uart.o
User_Uart_T::m_start_receive()                    build/bsp_uart.o
User_Uart_T::printf(char const*, ...)             build/bsp_uart.o
                                                  build/app_task.o
User_Uart_T::send_string(char const*)             build/bsp_uart.o
User_Uart_T::send_string(unsigned char*)          build/bsp_uart.o
User_Uart_T::show_rxbuf()                         build/bsp_uart.o
User_Uart_T::~User_Uart_T()                       build/bsp_uart.o
                                                  build/app.o
User_Uart_T::~User_Uart_T()                       build/bsp_uart.o
WAKEUP_PIN_IRQHandler                             build/startup_stm32h750xx.o
WWDG_IRQHandler                                   build/startup_stm32h750xx.o
Yuki                                              build/app.o
                                                  build/app_task.o
_Balloc                                           i:/mcu/gnu_tools_arm/bin/../lib/gcc/arm-none-eabi/5.4.1/../../../../arm-none-eabi/lib/armv7e-m/fpu/fpv5-d16\libc.a(lib_a-mprec.o)
                                                  i:/mcu/gnu_tools_arm/bin/../lib/gcc/arm-none-eabi/5.4.1/../../../../arm-none-eabi/lib/armv7e-m/fpu/fpv5-d16\libc.a(lib_a-dtoa.o)
_Bfree                                            i:/mcu/gnu_tools_arm/bin/../lib/gcc/arm-none-eabi/5.4.1/../../../../arm-none-eabi/lib/armv7e-m/fpu/fpv5-d16\libc.a(lib_a-mprec.o)
                                                  i:/mcu/gnu_tools_arm/bin/../lib/gcc/arm-none-eabi/5.4.1/../../../../arm-none-eabi/lib/armv7e-m/fpu/fpv5-d16\libc.a(lib_a-dtoa.o)
_Jv_RegisterClasses                               i:/mcu/gnu_tools_arm/bin/../lib/gcc/arm-none-eabi/5.4.1/armv7e-m/fpu/fpv5-d16/crtbegin.o
_PathLocale                                       i:/mcu/gnu_tools_arm/bin/../lib/gcc/arm-none-eabi/5.4.1/../../../../arm-none-eabi/lib/armv7e-m/fpu/fpv5-d16\libc.a(lib_a-locale.o)
_Unwind_Backtrace                                 i:/mcu/gnu_tools_arm/bin/../lib/gcc/arm-none-eabi/5.4.1/armv7e-m/fpu/fpv5-d16\libgcc.a(libunwind.o)
_Unwind_Complete                                  i:/mcu/gnu_tools_arm/bin/../lib/gcc/arm-none-eabi/5.4.1/armv7e-m/fpu/fpv5-d16\libgcc.a(unwind-arm.o)
_Unwind_DeleteException                           i:/mcu/gnu_tools_arm/bin/../lib/gcc/arm-none-eabi/5.4.1/armv7e-m/fpu/fpv5-d16\libgcc.a(unwind-arm.o)
_Unwind_ForcedUnwind                              i:/mcu/gnu_tools_arm/bin/../lib/gcc/arm-none-eabi/5.4.1/armv7e-m/fpu/fpv5-d16\libgcc.a(libunwind.o)
_Unwind_GetCFA                                    i:/mcu/gnu_tools_arm/bin/../lib/gcc/arm-none-eabi/5.4.1/armv7e-m/fpu/fpv5-d16\libgcc.a(unwind-arm.o)
_Unwind_GetDataRelBase                            i:/mcu/gnu_tools_arm/bin/../lib/gcc/arm-none-eabi/5.4.1/armv7e-m/fpu/fpv5-d16\libgcc.a(pr-support.o)
_Unwind_GetLanguageSpecificData                   i:/mcu/gnu_tools_arm/bin/../lib/gcc/arm-none-eabi/5.4.1/armv7e-m/fpu/fpv5-d16\libgcc.a(pr-support.o)
_Unwind_GetRegionStart                            i:/mcu/gnu_tools_arm/bin/../lib/gcc/arm-none-eabi/5.4.1/armv7e-m/fpu/fpv5-d16\libgcc.a(pr-support.o)
_Unwind_GetTextRelBase                            i:/mcu/gnu_tools_arm/bin/../lib/gcc/arm-none-eabi/5.4.1/armv7e-m/fpu/fpv5-d16\libgcc.a(pr-support.o)
_Unwind_RaiseException                            i:/mcu/gnu_tools_arm/bin/../lib/gcc/arm-none-eabi/5.4.1/armv7e-m/fpu/fpv5-d16\libgcc.a(libunwind.o)
_Unwind_Resume                                    i:/mcu/gnu_tools_arm/bin/../lib/gcc/arm-none-eabi/5.4.1/armv7e-m/fpu/fpv5-d16\libgcc.a(libunwind.o)
_Unwind_Resume_or_Rethrow                         i:/mcu/gnu_tools_arm/bin/../lib/gcc/arm-none-eabi/5.4.1/armv7e-m/fpu/fpv5-d16\libgcc.a(libunwind.o)
_Unwind_VRS_Get                                   i:/mcu/gnu_tools_arm/bin/../lib/gcc/arm-none-eabi/5.4.1/armv7e-m/fpu/fpv5-d16\libgcc.a(unwind-arm.o)
                                                  i:/mcu/gnu_tools_arm/bin/../lib/gcc/arm-none-eabi/5.4.1/armv7e-m/fpu/fpv5-d16\libgcc.a(pr-support.o)
_Unwind_VRS_Pop                                   i:/mcu/gnu_tools_arm/bin/../lib/gcc/arm-none-eabi/5.4.1/armv7e-m/fpu/fpv5-d16\libgcc.a(unwind-arm.o)
                                                  i:/mcu/gnu_tools_arm/bin/../lib/gcc/arm-none-eabi/5.4.1/armv7e-m/fpu/fpv5-d16\libgcc.a(pr-support.o)
_Unwind_VRS_Set                                   i:/mcu/gnu_tools_arm/bin/../lib/gcc/arm-none-eabi/5.4.1/armv7e-m/fpu/fpv5-d16\libgcc.a(unwind-arm.o)
                                                  i:/mcu/gnu_tools_arm/bin/../lib/gcc/arm-none-eabi/5.4.1/armv7e-m/fpu/fpv5-d16\libgcc.a(pr-support.o)
___Unwind_Backtrace                               i:/mcu/gnu_tools_arm/bin/../lib/gcc/arm-none-eabi/5.4.1/armv7e-m/fpu/fpv5-d16\libgcc.a(libunwind.o)
___Unwind_ForcedUnwind                            i:/mcu/gnu_tools_arm/bin/../lib/gcc/arm-none-eabi/5.4.1/armv7e-m/fpu/fpv5-d16\libgcc.a(libunwind.o)
___Unwind_RaiseException                          i:/mcu/gnu_tools_arm/bin/../lib/gcc/arm-none-eabi/5.4.1/armv7e-m/fpu/fpv5-d16\libgcc.a(libunwind.o)
___Unwind_Resume                                  i:/mcu/gnu_tools_arm/bin/../lib/gcc/arm-none-eabi/5.4.1/armv7e-m/fpu/fpv5-d16\libgcc.a(libunwind.o)
___Unwind_Resume_or_Rethrow                       i:/mcu/gnu_tools_arm/bin/../lib/gcc/arm-none-eabi/5.4.1/armv7e-m/fpu/fpv5-d16\libgcc.a(libunwind.o)
__aeabi_atexit                                    i:/mcu/gnu_tools_arm/bin/../lib/gcc/arm-none-eabi/5.4.1/../../../../arm-none-eabi/lib/armv7e-m/fpu/fpv5-d16\libc.a(lib_a-aeabi_atexit.o)
                                                  build/app.o
__aeabi_idiv0                                     i:/mcu/gnu_tools_arm/bin/../lib/gcc/arm-none-eabi/5.4.1/armv7e-m/fpu/fpv5-d16\libgcc.a(_dvmd_tls.o)
__aeabi_ldiv0                                     i:/mcu/gnu_tools_arm/bin/../lib/gcc/arm-none-eabi/5.4.1/armv7e-m/fpu/fpv5-d16\libgcc.a(_dvmd_tls.o)
                                                  i:/mcu/gnu_tools_arm/bin/../lib/gcc/arm-none-eabi/5.4.1/armv7e-m/fpu/fpv5-d16\libgcc.a(_aeabi_uldivmod.o)
__aeabi_uldivmod                                  i:/mcu/gnu_tools_arm/bin/../lib/gcc/arm-none-eabi/5.4.1/armv7e-m/fpu/fpv5-d16\libgcc.a(_aeabi_uldivmod.o)
                                                  i:/mcu/gnu_tools_arm/bin/../lib/gcc/arm-none-eabi/5.4.1/../../../../arm-none-eabi/lib/armv7e-m/fpu/fpv5-d16\libc.a(lib_a-svfiprintf.o)
                                                  i:/mcu/gnu_tools_arm/bin/../lib/gcc/arm-none-eabi/5.4.1/../../../../arm-none-eabi/lib/armv7e-m/fpu/fpv5-d16\libc.a(lib_a-svfprintf.o)
                                                  build/bsp_cpu.o
                                                  build/stm32h7xx_hal_uart.o
__aeabi_unwind_cpp_pr0                            i:/mcu/gnu_tools_arm/bin/../lib/gcc/arm-none-eabi/5.4.1/armv7e-m/fpu/fpv5-d16\libgcc.a(unwind-arm.o)
                                                  i:/mcu/gnu_tools_arm/bin/../lib/gcc/arm-none-eabi/5.4.1/armv7e-m/fpu/fpv5-d16\libgcc.a(pr-support.o)
                                                  build/bsp_uart.o
                                                  build/app_task.o
                                                  build/app.o
__aeabi_unwind_cpp_pr1                            i:/mcu/gnu_tools_arm/bin/../lib/gcc/arm-none-eabi/5.4.1/armv7e-m/fpu/fpv5-d16\libgcc.a(unwind-arm.o)
                                                  i:/mcu/gnu_tools_arm/bin/../lib/gcc/arm-none-eabi/5.4.1/armv7e-m/fpu/fpv5-d16\libgcc.a(pr-support.o)
                                                  build/bsp_uart.o
__aeabi_unwind_cpp_pr2                            i:/mcu/gnu_tools_arm/bin/../lib/gcc/arm-none-eabi/5.4.1/armv7e-m/fpu/fpv5-d16\libgcc.a(unwind-arm.o)
__any_on                                          i:/mcu/gnu_tools_arm/bin/../lib/gcc/arm-none-eabi/5.4.1/../../../../arm-none-eabi/lib/armv7e-m/fpu/fpv5-d16\libc.a(lib_a-mprec.o)
__ascii_mbtowc                                    i:/mcu/gnu_tools_arm/bin/../lib/gcc/arm-none-eabi/5.4.1/../../../../arm-none-eabi/lib/armv7e-m/fpu/fpv5-d16\libc.a(lib_a-mbtowc_r.o)
                                                  i:/mcu/gnu_tools_arm/bin/../lib/gcc/arm-none-eabi/5.4.1/../../../../arm-none-eabi/lib/armv7e-m/fpu/fpv5-d16\libc.a(lib_a-locale.o)
__ascii_wctomb                                    i:/mcu/gnu_tools_arm/bin/../lib/gcc/arm-none-eabi/5.4.1/../../../../arm-none-eabi/lib/armv7e-m/fpu/fpv5-d16\libc.a(lib_a-wctomb_r.o)
                                                  i:/mcu/gnu_tools_arm/bin/../lib/gcc/arm-none-eabi/5.4.1/../../../../arm-none-eabi/lib/armv7e-m/fpu/fpv5-d16\libc.a(lib_a-locale.o)
__b2d                                             i:/mcu/gnu_tools_arm/bin/../lib/gcc/arm-none-eabi/5.4.1/../../../../arm-none-eabi/lib/armv7e-m/fpu/fpv5-d16\libc.a(lib_a-mprec.o)
__bss_end__                                       i:/mcu/gnu_tools_arm/bin/../lib/gcc/arm-none-eabi/5.4.1/../../../../arm-none-eabi/lib/armv7e-m/fpu/fpv5-d16/crt0.o
__bss_start__                                     i:/mcu/gnu_tools_arm/bin/../lib/gcc/arm-none-eabi/5.4.1/../../../../arm-none-eabi/lib/armv7e-m/fpu/fpv5-d16/crt0.o
__call_exitprocs                                  i:/mcu/gnu_tools_arm/bin/../lib/gcc/arm-none-eabi/5.4.1/../../../../arm-none-eabi/lib/armv7e-m/fpu/fpv5-d16\libc.a(lib_a-__call_atexit.o)
                                                  i:/mcu/gnu_tools_arm/bin/../lib/gcc/arm-none-eabi/5.4.1/../../../../arm-none-eabi/lib/armv7e-m/fpu/fpv5-d16\libc.a(lib_a-exit.o)
__copybits                                        i:/mcu/gnu_tools_arm/bin/../lib/gcc/arm-none-eabi/5.4.1/../../../../arm-none-eabi/lib/armv7e-m/fpu/fpv5-d16\libc.a(lib_a-mprec.o)
__cxa_atexit                                      i:/mcu/gnu_tools_arm/bin/../lib/gcc/arm-none-eabi/5.4.1/../../../../arm-none-eabi/lib/armv7e-m/fpu/fpv5-d16\libc.a(lib_a-cxa_atexit.o)
                                                  i:/mcu/gnu_tools_arm/bin/../lib/gcc/arm-none-eabi/5.4.1/../../../../arm-none-eabi/lib/armv7e-m/fpu/fpv5-d16\libc.a(lib_a-aeabi_atexit.o)
__cxa_begin_cleanup                               i:/mcu/gnu_tools_arm/bin/../lib/gcc/arm-none-eabi/5.4.1/armv7e-m/fpu/fpv5-d16\libgcc.a(unwind-arm.o)
__cxa_call_unexpected                             i:/mcu/gnu_tools_arm/bin/../lib/gcc/arm-none-eabi/5.4.1/armv7e-m/fpu/fpv5-d16\libgcc.a(unwind-arm.o)
__cxa_type_match                                  i:/mcu/gnu_tools_arm/bin/../lib/gcc/arm-none-eabi/5.4.1/armv7e-m/fpu/fpv5-d16\libgcc.a(unwind-arm.o)
__d2b                                             i:/mcu/gnu_tools_arm/bin/../lib/gcc/arm-none-eabi/5.4.1/../../../../arm-none-eabi/lib/armv7e-m/fpu/fpv5-d16\libc.a(lib_a-mprec.o)
                                                  i:/mcu/gnu_tools_arm/bin/../lib/gcc/arm-none-eabi/5.4.1/../../../../arm-none-eabi/lib/armv7e-m/fpu/fpv5-d16\libc.a(lib_a-dtoa.o)
__deregister_frame_info                           i:/mcu/gnu_tools_arm/bin/../lib/gcc/arm-none-eabi/5.4.1/armv7e-m/fpu/fpv5-d16/crtbegin.o
__dso_handle                                      i:/mcu/gnu_tools_arm/bin/../lib/gcc/arm-none-eabi/5.4.1/armv7e-m/fpu/fpv5-d16/crtbegin.o
                                                  build/app.o
__exidx_end                                       i:/mcu/gnu_tools_arm/bin/../lib/gcc/arm-none-eabi/5.4.1/armv7e-m/fpu/fpv5-d16\libgcc.a(unwind-arm.o)
__exidx_start                                     i:/mcu/gnu_tools_arm/bin/../lib/gcc/arm-none-eabi/5.4.1/armv7e-m/fpu/fpv5-d16\libgcc.a(unwind-arm.o)
__fini_array_end                                  i:/mcu/gnu_tools_arm/bin/../lib/gcc/arm-none-eabi/5.4.1/../../../../arm-none-eabi/lib/armv7e-m/fpu/fpv5-d16\libc.a(lib_a-fini.o)
__fini_array_start                                i:/mcu/gnu_tools_arm/bin/../lib/gcc/arm-none-eabi/5.4.1/../../../../arm-none-eabi/lib/armv7e-m/fpu/fpv5-d16\libc.a(lib_a-fini.o)
__global_locale                                   i:/mcu/gnu_tools_arm/bin/../lib/gcc/arm-none-eabi/5.4.1/../../../../arm-none-eabi/lib/armv7e-m/fpu/fpv5-d16\libc.a(lib_a-locale.o)
                                                  i:/mcu/gnu_tools_arm/bin/../lib/gcc/arm-none-eabi/5.4.1/../../../../arm-none-eabi/lib/armv7e-m/fpu/fpv5-d16\libc.a(lib_a-wctomb_r.o)
                                                  i:/mcu/gnu_tools_arm/bin/../lib/gcc/arm-none-eabi/5.4.1/../../../../arm-none-eabi/lib/armv7e-m/fpu/fpv5-d16\libc.a(lib_a-mbtowc_r.o)
                                                  i:/mcu/gnu_tools_arm/bin/../lib/gcc/arm-none-eabi/5.4.1/../../../../arm-none-eabi/lib/armv7e-m/fpu/fpv5-d16\libc.a(lib_a-localeconv.o)
__gnu_Unwind_Backtrace                            i:/mcu/gnu_tools_arm/bin/../lib/gcc/arm-none-eabi/5.4.1/armv7e-m/fpu/fpv5-d16\libgcc.a(unwind-arm.o)
                                                  i:/mcu/gnu_tools_arm/bin/../lib/gcc/arm-none-eabi/5.4.1/armv7e-m/fpu/fpv5-d16\libgcc.a(libunwind.o)
__gnu_Unwind_Find_exidx                           i:/mcu/gnu_tools_arm/bin/../lib/gcc/arm-none-eabi/5.4.1/armv7e-m/fpu/fpv5-d16\libgcc.a(unwind-arm.o)
__gnu_Unwind_ForcedUnwind                         i:/mcu/gnu_tools_arm/bin/../lib/gcc/arm-none-eabi/5.4.1/armv7e-m/fpu/fpv5-d16\libgcc.a(unwind-arm.o)
                                                  i:/mcu/gnu_tools_arm/bin/../lib/gcc/arm-none-eabi/5.4.1/armv7e-m/fpu/fpv5-d16\libgcc.a(libunwind.o)
__gnu_Unwind_RaiseException                       i:/mcu/gnu_tools_arm/bin/../lib/gcc/arm-none-eabi/5.4.1/armv7e-m/fpu/fpv5-d16\libgcc.a(unwind-arm.o)
                                                  i:/mcu/gnu_tools_arm/bin/../lib/gcc/arm-none-eabi/5.4.1/armv7e-m/fpu/fpv5-d16\libgcc.a(libunwind.o)
__gnu_Unwind_Restore_VFP                          i:/mcu/gnu_tools_arm/bin/../lib/gcc/arm-none-eabi/5.4.1/armv7e-m/fpu/fpv5-d16\libgcc.a(libunwind.o)
                                                  i:/mcu/gnu_tools_arm/bin/../lib/gcc/arm-none-eabi/5.4.1/armv7e-m/fpu/fpv5-d16\libgcc.a(unwind-arm.o)
__gnu_Unwind_Restore_VFP_D                        i:/mcu/gnu_tools_arm/bin/../lib/gcc/arm-none-eabi/5.4.1/armv7e-m/fpu/fpv5-d16\libgcc.a(libunwind.o)
                                                  i:/mcu/gnu_tools_arm/bin/../lib/gcc/arm-none-eabi/5.4.1/armv7e-m/fpu/fpv5-d16\libgcc.a(unwind-arm.o)
__gnu_Unwind_Restore_VFP_D_16_to_31               i:/mcu/gnu_tools_arm/bin/../lib/gcc/arm-none-eabi/5.4.1/armv7e-m/fpu/fpv5-d16\libgcc.a(libunwind.o)
                                                  i:/mcu/gnu_tools_arm/bin/../lib/gcc/arm-none-eabi/5.4.1/armv7e-m/fpu/fpv5-d16\libgcc.a(unwind-arm.o)
__gnu_Unwind_Restore_WMMXC                        i:/mcu/gnu_tools_arm/bin/../lib/gcc/arm-none-eabi/5.4.1/armv7e-m/fpu/fpv5-d16\libgcc.a(libunwind.o)
                                                  i:/mcu/gnu_tools_arm/bin/../lib/gcc/arm-none-eabi/5.4.1/armv7e-m/fpu/fpv5-d16\libgcc.a(unwind-arm.o)
__gnu_Unwind_Restore_WMMXD                        i:/mcu/gnu_tools_arm/bin/../lib/gcc/arm-none-eabi/5.4.1/armv7e-m/fpu/fpv5-d16\libgcc.a(libunwind.o)
                                                  i:/mcu/gnu_tools_arm/bin/../lib/gcc/arm-none-eabi/5.4.1/armv7e-m/fpu/fpv5-d16\libgcc.a(unwind-arm.o)
__gnu_Unwind_Resume                               i:/mcu/gnu_tools_arm/bin/../lib/gcc/arm-none-eabi/5.4.1/armv7e-m/fpu/fpv5-d16\libgcc.a(unwind-arm.o)
                                                  i:/mcu/gnu_tools_arm/bin/../lib/gcc/arm-none-eabi/5.4.1/armv7e-m/fpu/fpv5-d16\libgcc.a(libunwind.o)
__gnu_Unwind_Resume_or_Rethrow                    i:/mcu/gnu_tools_arm/bin/../lib/gcc/arm-none-eabi/5.4.1/armv7e-m/fpu/fpv5-d16\libgcc.a(unwind-arm.o)
                                                  i:/mcu/gnu_tools_arm/bin/../lib/gcc/arm-none-eabi/5.4.1/armv7e-m/fpu/fpv5-d16\libgcc.a(libunwind.o)
__gnu_Unwind_Save_VFP                             i:/mcu/gnu_tools_arm/bin/../lib/gcc/arm-none-eabi/5.4.1/armv7e-m/fpu/fpv5-d16\libgcc.a(libunwind.o)
                                                  i:/mcu/gnu_tools_arm/bin/../lib/gcc/arm-none-eabi/5.4.1/armv7e-m/fpu/fpv5-d16\libgcc.a(unwind-arm.o)
__gnu_Unwind_Save_VFP_D                           i:/mcu/gnu_tools_arm/bin/../lib/gcc/arm-none-eabi/5.4.1/armv7e-m/fpu/fpv5-d16\libgcc.a(libunwind.o)
                                                  i:/mcu/gnu_tools_arm/bin/../lib/gcc/arm-none-eabi/5.4.1/armv7e-m/fpu/fpv5-d16\libgcc.a(unwind-arm.o)
__gnu_Unwind_Save_VFP_D_16_to_31                  i:/mcu/gnu_tools_arm/bin/../lib/gcc/arm-none-eabi/5.4.1/armv7e-m/fpu/fpv5-d16\libgcc.a(libunwind.o)
                                                  i:/mcu/gnu_tools_arm/bin/../lib/gcc/arm-none-eabi/5.4.1/armv7e-m/fpu/fpv5-d16\libgcc.a(unwind-arm.o)
__gnu_Unwind_Save_WMMXC                           i:/mcu/gnu_tools_arm/bin/../lib/gcc/arm-none-eabi/5.4.1/armv7e-m/fpu/fpv5-d16\libgcc.a(libunwind.o)
                                                  i:/mcu/gnu_tools_arm/bin/../lib/gcc/arm-none-eabi/5.4.1/armv7e-m/fpu/fpv5-d16\libgcc.a(unwind-arm.o)
__gnu_Unwind_Save_WMMXD                           i:/mcu/gnu_tools_arm/bin/../lib/gcc/arm-none-eabi/5.4.1/armv7e-m/fpu/fpv5-d16\libgcc.a(libunwind.o)
                                                  i:/mcu/gnu_tools_arm/bin/../lib/gcc/arm-none-eabi/5.4.1/armv7e-m/fpu/fpv5-d16\libgcc.a(unwind-arm.o)
__gnu_unwind_execute                              i:/mcu/gnu_tools_arm/bin/../lib/gcc/arm-none-eabi/5.4.1/armv7e-m/fpu/fpv5-d16\libgcc.a(pr-support.o)
                                                  i:/mcu/gnu_tools_arm/bin/../lib/gcc/arm-none-eabi/5.4.1/armv7e-m/fpu/fpv5-d16\libgcc.a(unwind-arm.o)
__gnu_unwind_frame                                i:/mcu/gnu_tools_arm/bin/../lib/gcc/arm-none-eabi/5.4.1/armv7e-m/fpu/fpv5-d16\libgcc.a(pr-support.o)
__hi0bits                                         i:/mcu/gnu_tools_arm/bin/../lib/gcc/arm-none-eabi/5.4.1/../../../../arm-none-eabi/lib/armv7e-m/fpu/fpv5-d16\libc.a(lib_a-mprec.o)
                                                  i:/mcu/gnu_tools_arm/bin/../lib/gcc/arm-none-eabi/5.4.1/../../../../arm-none-eabi/lib/armv7e-m/fpu/fpv5-d16\libc.a(lib_a-dtoa.o)
__i2b                                             i:/mcu/gnu_tools_arm/bin/../lib/gcc/arm-none-eabi/5.4.1/../../../../arm-none-eabi/lib/armv7e-m/fpu/fpv5-d16\libc.a(lib_a-mprec.o)
                                                  i:/mcu/gnu_tools_arm/bin/../lib/gcc/arm-none-eabi/5.4.1/../../../../arm-none-eabi/lib/armv7e-m/fpu/fpv5-d16\libc.a(lib_a-dtoa.o)
__init_array_end                                  i:/mcu/gnu_tools_arm/bin/../lib/gcc/arm-none-eabi/5.4.1/../../../../arm-none-eabi/lib/armv7e-m/fpu/fpv5-d16\libc.a(lib_a-init.o)
__init_array_start                                i:/mcu/gnu_tools_arm/bin/../lib/gcc/arm-none-eabi/5.4.1/../../../../arm-none-eabi/lib/armv7e-m/fpu/fpv5-d16\libc.a(lib_a-init.o)
__libc_fini                                       i:/mcu/gnu_tools_arm/bin/../lib/gcc/arm-none-eabi/5.4.1/../../../../arm-none-eabi/lib/armv7e-m/fpu/fpv5-d16\libc.a(lib_a-__call_atexit.o)
__libc_fini_array                                 i:/mcu/gnu_tools_arm/bin/../lib/gcc/arm-none-eabi/5.4.1/../../../../arm-none-eabi/lib/armv7e-m/fpu/fpv5-d16\libc.a(lib_a-fini.o)
                                                  i:/mcu/gnu_tools_arm/bin/../lib/gcc/arm-none-eabi/5.4.1/../../../../arm-none-eabi/lib/armv7e-m/fpu/fpv5-d16\libc.a(lib_a-__call_atexit.o)
                                                  i:/mcu/gnu_tools_arm/bin/../lib/gcc/arm-none-eabi/5.4.1/../../../../arm-none-eabi/lib/armv7e-m/fpu/fpv5-d16/crt0.o
__libc_init_array                                 i:/mcu/gnu_tools_arm/bin/../lib/gcc/arm-none-eabi/5.4.1/../../../../arm-none-eabi/lib/armv7e-m/fpu/fpv5-d16\libc.a(lib_a-init.o)
                                                  build/startup_stm32h750xx.o
                                                  i:/mcu/gnu_tools_arm/bin/../lib/gcc/arm-none-eabi/5.4.1/../../../../arm-none-eabi/lib/armv7e-m/fpu/fpv5-d16/crt0.o
__lo0bits                                         i:/mcu/gnu_tools_arm/bin/../lib/gcc/arm-none-eabi/5.4.1/../../../../arm-none-eabi/lib/armv7e-m/fpu/fpv5-d16\libc.a(lib_a-mprec.o)
__locale_ctype_ptr                                i:/mcu/gnu_tools_arm/bin/../lib/gcc/arm-none-eabi/5.4.1/../../../../arm-none-eabi/lib/armv7e-m/fpu/fpv5-d16\libc.a(lib_a-locale.o)
__locale_ctype_ptr_l                              i:/mcu/gnu_tools_arm/bin/../lib/gcc/arm-none-eabi/5.4.1/../../../../arm-none-eabi/lib/armv7e-m/fpu/fpv5-d16\libc.a(lib_a-locale.o)
__locale_mb_cur_max                               i:/mcu/gnu_tools_arm/bin/../lib/gcc/arm-none-eabi/5.4.1/../../../../arm-none-eabi/lib/armv7e-m/fpu/fpv5-d16\libc.a(lib_a-locale.o)
__localeconv_l                                    i:/mcu/gnu_tools_arm/bin/../lib/gcc/arm-none-eabi/5.4.1/../../../../arm-none-eabi/lib/armv7e-m/fpu/fpv5-d16\libc.a(lib_a-localeconv.o)
__lshift                                          i:/mcu/gnu_tools_arm/bin/../lib/gcc/arm-none-eabi/5.4.1/../../../../arm-none-eabi/lib/armv7e-m/fpu/fpv5-d16\libc.a(lib_a-mprec.o)
                                                  i:/mcu/gnu_tools_arm/bin/../lib/gcc/arm-none-eabi/5.4.1/../../../../arm-none-eabi/lib/armv7e-m/fpu/fpv5-d16\libc.a(lib_a-dtoa.o)
__malloc_av_                                      i:/mcu/gnu_tools_arm/bin/../lib/gcc/arm-none-eabi/5.4.1/../../../../arm-none-eabi/lib/armv7e-m/fpu/fpv5-d16\libc.a(lib_a-mallocr.o)
                                                  i:/mcu/gnu_tools_arm/bin/../lib/gcc/arm-none-eabi/5.4.1/../../../../arm-none-eabi/lib/armv7e-m/fpu/fpv5-d16\libc.a(lib_a-reallocr.o)
                                                  i:/mcu/gnu_tools_arm/bin/../lib/gcc/arm-none-eabi/5.4.1/../../../../arm-none-eabi/lib/armv7e-m/fpu/fpv5-d16\libc.a(lib_a-freer.o)
__malloc_current_mallinfo                         i:/mcu/gnu_tools_arm/bin/../lib/gcc/arm-none-eabi/5.4.1/../../../../arm-none-eabi/lib/armv7e-m/fpu/fpv5-d16\libc.a(lib_a-mallocr.o)
                                                  i:/mcu/gnu_tools_arm/bin/../lib/gcc/arm-none-eabi/5.4.1/../../../../arm-none-eabi/lib/armv7e-m/fpu/fpv5-d16\libc.a(lib_a-freer.o)
__malloc_lock                                     i:/mcu/gnu_tools_arm/bin/../lib/gcc/arm-none-eabi/5.4.1/../../../../arm-none-eabi/lib/armv7e-m/fpu/fpv5-d16\libc.a(lib_a-mlock.o)
                                                  i:/mcu/gnu_tools_arm/bin/../lib/gcc/arm-none-eabi/5.4.1/../../../../arm-none-eabi/lib/armv7e-m/fpu/fpv5-d16\libc.a(lib_a-reallocr.o)
                                                  i:/mcu/gnu_tools_arm/bin/../lib/gcc/arm-none-eabi/5.4.1/../../../../arm-none-eabi/lib/armv7e-m/fpu/fpv5-d16\libc.a(lib_a-freer.o)
                                                  i:/mcu/gnu_tools_arm/bin/../lib/gcc/arm-none-eabi/5.4.1/../../../../arm-none-eabi/lib/armv7e-m/fpu/fpv5-d16\libc.a(lib_a-mallocr.o)
__malloc_max_sbrked_mem                           i:/mcu/gnu_tools_arm/bin/../lib/gcc/arm-none-eabi/5.4.1/../../../../arm-none-eabi/lib/armv7e-m/fpu/fpv5-d16\libc.a(lib_a-mallocr.o)
__malloc_max_total_mem                            i:/mcu/gnu_tools_arm/bin/../lib/gcc/arm-none-eabi/5.4.1/../../../../arm-none-eabi/lib/armv7e-m/fpu/fpv5-d16\libc.a(lib_a-mallocr.o)
__malloc_sbrk_base                                i:/mcu/gnu_tools_arm/bin/../lib/gcc/arm-none-eabi/5.4.1/../../../../arm-none-eabi/lib/armv7e-m/fpu/fpv5-d16\libc.a(lib_a-mallocr.o)
                                                  i:/mcu/gnu_tools_arm/bin/../lib/gcc/arm-none-eabi/5.4.1/../../../../arm-none-eabi/lib/armv7e-m/fpu/fpv5-d16\libc.a(lib_a-freer.o)
__malloc_top_pad                                  i:/mcu/gnu_tools_arm/bin/../lib/gcc/arm-none-eabi/5.4.1/../../../../arm-none-eabi/lib/armv7e-m/fpu/fpv5-d16\libc.a(lib_a-mallocr.o)
                                                  i:/mcu/gnu_tools_arm/bin/../lib/gcc/arm-none-eabi/5.4.1/../../../../arm-none-eabi/lib/armv7e-m/fpu/fpv5-d16\libc.a(lib_a-freer.o)
__malloc_trim_threshold                           i:/mcu/gnu_tools_arm/bin/../lib/gcc/arm-none-eabi/5.4.1/../../../../arm-none-eabi/lib/armv7e-m/fpu/fpv5-d16\libc.a(lib_a-mallocr.o)
                                                  i:/mcu/gnu_tools_arm/bin/../lib/gcc/arm-none-eabi/5.4.1/../../../../arm-none-eabi/lib/armv7e-m/fpu/fpv5-d16\libc.a(lib_a-freer.o)
__malloc_unlock                                   i:/mcu/gnu_tools_arm/bin/../lib/gcc/arm-none-eabi/5.4.1/../../../../arm-none-eabi/lib/armv7e-m/fpu/fpv5-d16\libc.a(lib_a-mlock.o)
                                                  i:/mcu/gnu_tools_arm/bin/../lib/gcc/arm-none-eabi/5.4.1/../../../../arm-none-eabi/lib/armv7e-m/fpu/fpv5-d16\libc.a(lib_a-reallocr.o)
                                                  i:/mcu/gnu_tools_arm/bin/../lib/gcc/arm-none-eabi/5.4.1/../../../../arm-none-eabi/lib/armv7e-m/fpu/fpv5-d16\libc.a(lib_a-freer.o)
                                                  i:/mcu/gnu_tools_arm/bin/../lib/gcc/arm-none-eabi/5.4.1/../../../../arm-none-eabi/lib/armv7e-m/fpu/fpv5-d16\libc.a(lib_a-mallocr.o)
__mcmp                                            i:/mcu/gnu_tools_arm/bin/../lib/gcc/arm-none-eabi/5.4.1/../../../../arm-none-eabi/lib/armv7e-m/fpu/fpv5-d16\libc.a(lib_a-mprec.o)
                                                  i:/mcu/gnu_tools_arm/bin/../lib/gcc/arm-none-eabi/5.4.1/../../../../arm-none-eabi/lib/armv7e-m/fpu/fpv5-d16\libc.a(lib_a-dtoa.o)
__mdiff                                           i:/mcu/gnu_tools_arm/bin/../lib/gcc/arm-none-eabi/5.4.1/../../../../arm-none-eabi/lib/armv7e-m/fpu/fpv5-d16\libc.a(lib_a-mprec.o)
                                                  i:/mcu/gnu_tools_arm/bin/../lib/gcc/arm-none-eabi/5.4.1/../../../../arm-none-eabi/lib/armv7e-m/fpu/fpv5-d16\libc.a(lib_a-dtoa.o)
__mprec_bigtens                                   i:/mcu/gnu_tools_arm/bin/../lib/gcc/arm-none-eabi/5.4.1/../../../../arm-none-eabi/lib/armv7e-m/fpu/fpv5-d16\libc.a(lib_a-mprec.o)
                                                  i:/mcu/gnu_tools_arm/bin/../lib/gcc/arm-none-eabi/5.4.1/../../../../arm-none-eabi/lib/armv7e-m/fpu/fpv5-d16\libc.a(lib_a-dtoa.o)
__mprec_tens                                      i:/mcu/gnu_tools_arm/bin/../lib/gcc/arm-none-eabi/5.4.1/../../../../arm-none-eabi/lib/armv7e-m/fpu/fpv5-d16\libc.a(lib_a-mprec.o)
                                                  i:/mcu/gnu_tools_arm/bin/../lib/gcc/arm-none-eabi/5.4.1/../../../../arm-none-eabi/lib/armv7e-m/fpu/fpv5-d16\libc.a(lib_a-dtoa.o)
__mprec_tinytens                                  i:/mcu/gnu_tools_arm/bin/../lib/gcc/arm-none-eabi/5.4.1/../../../../arm-none-eabi/lib/armv7e-m/fpu/fpv5-d16\libc.a(lib_a-mprec.o)
__multadd                                         i:/mcu/gnu_tools_arm/bin/../lib/gcc/arm-none-eabi/5.4.1/../../../../arm-none-eabi/lib/armv7e-m/fpu/fpv5-d16\libc.a(lib_a-mprec.o)
                                                  i:/mcu/gnu_tools_arm/bin/../lib/gcc/arm-none-eabi/5.4.1/../../../../arm-none-eabi/lib/armv7e-m/fpu/fpv5-d16\libc.a(lib_a-dtoa.o)
__multiply                                        i:/mcu/gnu_tools_arm/bin/../lib/gcc/arm-none-eabi/5.4.1/../../../../arm-none-eabi/lib/armv7e-m/fpu/fpv5-d16\libc.a(lib_a-mprec.o)
                                                  i:/mcu/gnu_tools_arm/bin/../lib/gcc/arm-none-eabi/5.4.1/../../../../arm-none-eabi/lib/armv7e-m/fpu/fpv5-d16\libc.a(lib_a-dtoa.o)
__pow5mult                                        i:/mcu/gnu_tools_arm/bin/../lib/gcc/arm-none-eabi/5.4.1/../../../../arm-none-eabi/lib/armv7e-m/fpu/fpv5-d16\libc.a(lib_a-mprec.o)
                                                  i:/mcu/gnu_tools_arm/bin/../lib/gcc/arm-none-eabi/5.4.1/../../../../arm-none-eabi/lib/armv7e-m/fpu/fpv5-d16\libc.a(lib_a-dtoa.o)
__preinit_array_end                               i:/mcu/gnu_tools_arm/bin/../lib/gcc/arm-none-eabi/5.4.1/../../../../arm-none-eabi/lib/armv7e-m/fpu/fpv5-d16\libc.a(lib_a-init.o)
__preinit_array_start                             i:/mcu/gnu_tools_arm/bin/../lib/gcc/arm-none-eabi/5.4.1/../../../../arm-none-eabi/lib/armv7e-m/fpu/fpv5-d16\libc.a(lib_a-init.o)
__ratio                                           i:/mcu/gnu_tools_arm/bin/../lib/gcc/arm-none-eabi/5.4.1/../../../../arm-none-eabi/lib/armv7e-m/fpu/fpv5-d16\libc.a(lib_a-mprec.o)
__register_exitproc                               i:/mcu/gnu_tools_arm/bin/../lib/gcc/arm-none-eabi/5.4.1/../../../../arm-none-eabi/lib/armv7e-m/fpu/fpv5-d16\libc.a(lib_a-__atexit.o)
                                                  i:/mcu/gnu_tools_arm/bin/../lib/gcc/arm-none-eabi/5.4.1/../../../../arm-none-eabi/lib/armv7e-m/fpu/fpv5-d16\libc.a(lib_a-atexit.o)
                                                  i:/mcu/gnu_tools_arm/bin/../lib/gcc/arm-none-eabi/5.4.1/../../../../arm-none-eabi/lib/armv7e-m/fpu/fpv5-d16\libc.a(lib_a-cxa_atexit.o)
__register_frame_info                             i:/mcu/gnu_tools_arm/bin/../lib/gcc/arm-none-eabi/5.4.1/armv7e-m/fpu/fpv5-d16/crtbegin.o
__restore_core_regs                               i:/mcu/gnu_tools_arm/bin/../lib/gcc/arm-none-eabi/5.4.1/armv7e-m/fpu/fpv5-d16\libgcc.a(libunwind.o)
__s2b                                             i:/mcu/gnu_tools_arm/bin/../lib/gcc/arm-none-eabi/5.4.1/../../../../arm-none-eabi/lib/armv7e-m/fpu/fpv5-d16\libc.a(lib_a-mprec.o)
__sigtramp                                        i:/mcu/gnu_tools_arm/bin/../lib/gcc/arm-none-eabi/5.4.1/../../../../arm-none-eabi/lib/armv7e-m/fpu/fpv5-d16\libc.a(lib_a-signal.o)
__sigtramp_r                                      i:/mcu/gnu_tools_arm/bin/../lib/gcc/arm-none-eabi/5.4.1/../../../../arm-none-eabi/lib/armv7e-m/fpu/fpv5-d16\libc.a(lib_a-signal.o)
__ssprint_r                                       i:/mcu/gnu_tools_arm/bin/../lib/gcc/arm-none-eabi/5.4.1/../../../../arm-none-eabi/lib/armv7e-m/fpu/fpv5-d16\libc.a(lib_a-svfiprintf.o)
                                                  i:/mcu/gnu_tools_arm/bin/../lib/gcc/arm-none-eabi/5.4.1/../../../../arm-none-eabi/lib/armv7e-m/fpu/fpv5-d16\libc.a(lib_a-svfprintf.o)
__stack                                           i:/mcu/gnu_tools_arm/bin/../lib/gcc/arm-none-eabi/5.4.1/../../../../arm-none-eabi/lib/armv7e-m/fpu/fpv5-d16/crt0.o
__udivmoddi4                                      i:/mcu/gnu_tools_arm/bin/../lib/gcc/arm-none-eabi/5.4.1/armv7e-m/fpu/fpv5-d16\libgcc.a(_udivmoddi4.o)
                                                  i:/mcu/gnu_tools_arm/bin/../lib/gcc/arm-none-eabi/5.4.1/armv7e-m/fpu/fpv5-d16\libgcc.a(_aeabi_uldivmod.o)
__ulp                                             i:/mcu/gnu_tools_arm/bin/../lib/gcc/arm-none-eabi/5.4.1/../../../../arm-none-eabi/lib/armv7e-m/fpu/fpv5-d16\libc.a(lib_a-mprec.o)
_calloc_r                                         i:/mcu/gnu_tools_arm/bin/../lib/gcc/arm-none-eabi/5.4.1/../../../../arm-none-eabi/lib/armv7e-m/fpu/fpv5-d16\libc.a(lib_a-callocr.o)
                                                  i:/mcu/gnu_tools_arm/bin/../lib/gcc/arm-none-eabi/5.4.1/../../../../arm-none-eabi/lib/armv7e-m/fpu/fpv5-d16\libc.a(lib_a-mprec.o)
_ctype_                                           i:/mcu/gnu_tools_arm/bin/../lib/gcc/arm-none-eabi/5.4.1/../../../../arm-none-eabi/lib/armv7e-m/fpu/fpv5-d16\libc.a(lib_a-ctype_.o)
                                                  i:/mcu/gnu_tools_arm/bin/../lib/gcc/arm-none-eabi/5.4.1/../../../../arm-none-eabi/lib/armv7e-m/fpu/fpv5-d16\libc.a(lib_a-locale.o)
_dtoa_r                                           i:/mcu/gnu_tools_arm/bin/../lib/gcc/arm-none-eabi/5.4.1/../../../../arm-none-eabi/lib/armv7e-m/fpu/fpv5-d16\libc.a(lib_a-dtoa.o)
                                                  i:/mcu/gnu_tools_arm/bin/../lib/gcc/arm-none-eabi/5.4.1/../../../../arm-none-eabi/lib/armv7e-m/fpu/fpv5-d16\libc.a(lib_a-svfprintf.o)
_ebss                                             build/startup_stm32h750xx.o
_edata                                            build/startup_stm32h750xx.o
_estack                                           build/startup_stm32h750xx.o
_exit                                             i:/mcu/gnu_tools_arm/bin/../lib/gcc/arm-none-eabi/5.4.1/../../../../arm-none-eabi/lib/armv7e-m/fpu/fpv5-d16\libnosys.a(_exit.o)
                                                  i:/mcu/gnu_tools_arm/bin/../lib/gcc/arm-none-eabi/5.4.1/../../../../arm-none-eabi/lib/armv7e-m/fpu/fpv5-d16\libc.a(lib_a-abort.o)
                                                  i:/mcu/gnu_tools_arm/bin/../lib/gcc/arm-none-eabi/5.4.1/../../../../arm-none-eabi/lib/armv7e-m/fpu/fpv5-d16\libc.a(lib_a-exit.o)
_fini                                             i:/mcu/gnu_tools_arm/bin/../lib/gcc/arm-none-eabi/5.4.1/armv7e-m/fpu/fpv5-d16/crti.o
                                                  i:/mcu/gnu_tools_arm/bin/../lib/gcc/arm-none-eabi/5.4.1/../../../../arm-none-eabi/lib/armv7e-m/fpu/fpv5-d16\libc.a(lib_a-fini.o)
_free_r                                           i:/mcu/gnu_tools_arm/bin/../lib/gcc/arm-none-eabi/5.4.1/../../../../arm-none-eabi/lib/armv7e-m/fpu/fpv5-d16\libc.a(lib_a-freer.o)
                                                  i:/mcu/gnu_tools_arm/bin/../lib/gcc/arm-none-eabi/5.4.1/../../../../arm-none-eabi/lib/armv7e-m/fpu/fpv5-d16\libc.a(lib_a-reent.o)
                                                  i:/mcu/gnu_tools_arm/bin/../lib/gcc/arm-none-eabi/5.4.1/../../../../arm-none-eabi/lib/armv7e-m/fpu/fpv5-d16\libc.a(lib_a-reallocr.o)
                                                  i:/mcu/gnu_tools_arm/bin/../lib/gcc/arm-none-eabi/5.4.1/../../../../arm-none-eabi/lib/armv7e-m/fpu/fpv5-d16\libc.a(lib_a-svfiprintf.o)
                                                  i:/mcu/gnu_tools_arm/bin/../lib/gcc/arm-none-eabi/5.4.1/../../../../arm-none-eabi/lib/armv7e-m/fpu/fpv5-d16\libc.a(lib_a-mallocr.o)
_getpid                                           i:/mcu/gnu_tools_arm/bin/../lib/gcc/arm-none-eabi/5.4.1/../../../../arm-none-eabi/lib/armv7e-m/fpu/fpv5-d16\libnosys.a(getpid.o)
                                                  i:/mcu/gnu_tools_arm/bin/../lib/gcc/arm-none-eabi/5.4.1/../../../../arm-none-eabi/lib/armv7e-m/fpu/fpv5-d16\libc.a(lib_a-signalr.o)
_getpid_r                                         i:/mcu/gnu_tools_arm/bin/../lib/gcc/arm-none-eabi/5.4.1/../../../../arm-none-eabi/lib/armv7e-m/fpu/fpv5-d16\libc.a(lib_a-signalr.o)
                                                  i:/mcu/gnu_tools_arm/bin/../lib/gcc/arm-none-eabi/5.4.1/../../../../arm-none-eabi/lib/armv7e-m/fpu/fpv5-d16\libc.a(lib_a-signal.o)
_global_impure_ptr                                i:/mcu/gnu_tools_arm/bin/../lib/gcc/arm-none-eabi/5.4.1/../../../../arm-none-eabi/lib/armv7e-m/fpu/fpv5-d16\libc.a(lib_a-impure.o)
                                                  i:/mcu/gnu_tools_arm/bin/../lib/gcc/arm-none-eabi/5.4.1/../../../../arm-none-eabi/lib/armv7e-m/fpu/fpv5-d16\libc.a(lib_a-__call_atexit.o)
                                                  i:/mcu/gnu_tools_arm/bin/../lib/gcc/arm-none-eabi/5.4.1/../../../../arm-none-eabi/lib/armv7e-m/fpu/fpv5-d16\libc.a(lib_a-__atexit.o)
                                                  i:/mcu/gnu_tools_arm/bin/../lib/gcc/arm-none-eabi/5.4.1/../../../../arm-none-eabi/lib/armv7e-m/fpu/fpv5-d16\libc.a(lib_a-exit.o)
_impure_ptr                                       i:/mcu/gnu_tools_arm/bin/../lib/gcc/arm-none-eabi/5.4.1/../../../../arm-none-eabi/lib/armv7e-m/fpu/fpv5-d16\libc.a(lib_a-impure.o)
                                                  i:/mcu/gnu_tools_arm/bin/../lib/gcc/arm-none-eabi/5.4.1/../../../../arm-none-eabi/lib/armv7e-m/fpu/fpv5-d16\libc.a(lib_a-signal.o)
                                                  i:/mcu/gnu_tools_arm/bin/../lib/gcc/arm-none-eabi/5.4.1/../../../../arm-none-eabi/lib/armv7e-m/fpu/fpv5-d16\libc.a(lib_a-wctomb_r.o)
                                                  i:/mcu/gnu_tools_arm/bin/../lib/gcc/arm-none-eabi/5.4.1/../../../../arm-none-eabi/lib/armv7e-m/fpu/fpv5-d16\libc.a(lib_a-reent.o)
                                                  i:/mcu/gnu_tools_arm/bin/../lib/gcc/arm-none-eabi/5.4.1/../../../../arm-none-eabi/lib/armv7e-m/fpu/fpv5-d16\libc.a(lib_a-mbtowc_r.o)
                                                  i:/mcu/gnu_tools_arm/bin/../lib/gcc/arm-none-eabi/5.4.1/../../../../arm-none-eabi/lib/armv7e-m/fpu/fpv5-d16\libc.a(lib_a-locale.o)
                                                  i:/mcu/gnu_tools_arm/bin/../lib/gcc/arm-none-eabi/5.4.1/../../../../arm-none-eabi/lib/armv7e-m/fpu/fpv5-d16\libc.a(lib_a-localeconv.o)
                                                  i:/mcu/gnu_tools_arm/bin/../lib/gcc/arm-none-eabi/5.4.1/../../../../arm-none-eabi/lib/armv7e-m/fpu/fpv5-d16\libc.a(lib_a-sprintf.o)
_init                                             i:/mcu/gnu_tools_arm/bin/../lib/gcc/arm-none-eabi/5.4.1/armv7e-m/fpu/fpv5-d16/crti.o
                                                  i:/mcu/gnu_tools_arm/bin/../lib/gcc/arm-none-eabi/5.4.1/../../../../arm-none-eabi/lib/armv7e-m/fpu/fpv5-d16\libc.a(lib_a-init.o)
_init_signal                                      i:/mcu/gnu_tools_arm/bin/../lib/gcc/arm-none-eabi/5.4.1/../../../../arm-none-eabi/lib/armv7e-m/fpu/fpv5-d16\libc.a(lib_a-signal.o)
_init_signal_r                                    i:/mcu/gnu_tools_arm/bin/../lib/gcc/arm-none-eabi/5.4.1/../../../../arm-none-eabi/lib/armv7e-m/fpu/fpv5-d16\libc.a(lib_a-signal.o)
_kill                                             i:/mcu/gnu_tools_arm/bin/../lib/gcc/arm-none-eabi/5.4.1/../../../../arm-none-eabi/lib/armv7e-m/fpu/fpv5-d16\libnosys.a(kill.o)
                                                  i:/mcu/gnu_tools_arm/bin/../lib/gcc/arm-none-eabi/5.4.1/../../../../arm-none-eabi/lib/armv7e-m/fpu/fpv5-d16\libc.a(lib_a-signalr.o)
_kill_r                                           i:/mcu/gnu_tools_arm/bin/../lib/gcc/arm-none-eabi/5.4.1/../../../../arm-none-eabi/lib/armv7e-m/fpu/fpv5-d16\libc.a(lib_a-signalr.o)
                                                  i:/mcu/gnu_tools_arm/bin/../lib/gcc/arm-none-eabi/5.4.1/../../../../arm-none-eabi/lib/armv7e-m/fpu/fpv5-d16\libc.a(lib_a-signal.o)
_localeconv_r                                     i:/mcu/gnu_tools_arm/bin/../lib/gcc/arm-none-eabi/5.4.1/../../../../arm-none-eabi/lib/armv7e-m/fpu/fpv5-d16\libc.a(lib_a-localeconv.o)
                                                  i:/mcu/gnu_tools_arm/bin/../lib/gcc/arm-none-eabi/5.4.1/../../../../arm-none-eabi/lib/armv7e-m/fpu/fpv5-d16\libc.a(lib_a-svfprintf.o)
_mainCRTStartup                                   i:/mcu/gnu_tools_arm/bin/../lib/gcc/arm-none-eabi/5.4.1/../../../../arm-none-eabi/lib/armv7e-m/fpu/fpv5-d16/crt0.o
_malloc_r                                         i:/mcu/gnu_tools_arm/bin/../lib/gcc/arm-none-eabi/5.4.1/../../../../arm-none-eabi/lib/armv7e-m/fpu/fpv5-d16\libc.a(lib_a-mallocr.o)
                                                  i:/mcu/gnu_tools_arm/bin/../lib/gcc/arm-none-eabi/5.4.1/../../../../arm-none-eabi/lib/armv7e-m/fpu/fpv5-d16\libc.a(lib_a-signal.o)
                                                  i:/mcu/gnu_tools_arm/bin/../lib/gcc/arm-none-eabi/5.4.1/../../../../arm-none-eabi/lib/armv7e-m/fpu/fpv5-d16\libc.a(lib_a-reallocr.o)
                                                  i:/mcu/gnu_tools_arm/bin/../lib/gcc/arm-none-eabi/5.4.1/../../../../arm-none-eabi/lib/armv7e-m/fpu/fpv5-d16\libc.a(lib_a-callocr.o)
                                                  i:/mcu/gnu_tools_arm/bin/../lib/gcc/arm-none-eabi/5.4.1/../../../../arm-none-eabi/lib/armv7e-m/fpu/fpv5-d16\libc.a(lib_a-svfiprintf.o)
                                                  i:/mcu/gnu_tools_arm/bin/../lib/gcc/arm-none-eabi/5.4.1/../../../../arm-none-eabi/lib/armv7e-m/fpu/fpv5-d16\libc.a(lib_a-svfprintf.o)
_malloc_trim_r                                    i:/mcu/gnu_tools_arm/bin/../lib/gcc/arm-none-eabi/5.4.1/../../../../arm-none-eabi/lib/armv7e-m/fpu/fpv5-d16\libc.a(lib_a-freer.o)
_mbtowc_r                                         i:/mcu/gnu_tools_arm/bin/../lib/gcc/arm-none-eabi/5.4.1/../../../../arm-none-eabi/lib/armv7e-m/fpu/fpv5-d16\libc.a(lib_a-mbtowc_r.o)
_mprec_log10                                      i:/mcu/gnu_tools_arm/bin/../lib/gcc/arm-none-eabi/5.4.1/../../../../arm-none-eabi/lib/armv7e-m/fpu/fpv5-d16\libc.a(lib_a-mprec.o)
_raise_r                                          i:/mcu/gnu_tools_arm/bin/../lib/gcc/arm-none-eabi/5.4.1/../../../../arm-none-eabi/lib/armv7e-m/fpu/fpv5-d16\libc.a(lib_a-signal.o)
_realloc_r                                        i:/mcu/gnu_tools_arm/bin/../lib/gcc/arm-none-eabi/5.4.1/../../../../arm-none-eabi/lib/armv7e-m/fpu/fpv5-d16\libc.a(lib_a-reallocr.o)
                                                  i:/mcu/gnu_tools_arm/bin/../lib/gcc/arm-none-eabi/5.4.1/../../../../arm-none-eabi/lib/armv7e-m/fpu/fpv5-d16\libc.a(lib_a-svfiprintf.o)
_reclaim_reent                                    i:/mcu/gnu_tools_arm/bin/../lib/gcc/arm-none-eabi/5.4.1/../../../../arm-none-eabi/lib/armv7e-m/fpu/fpv5-d16\libc.a(lib_a-reent.o)
_sbrk                                             i:/mcu/gnu_tools_arm/bin/../lib/gcc/arm-none-eabi/5.4.1/../../../../arm-none-eabi/lib/armv7e-m/fpu/fpv5-d16\libnosys.a(sbrk.o)
                                                  i:/mcu/gnu_tools_arm/bin/../lib/gcc/arm-none-eabi/5.4.1/../../../../arm-none-eabi/lib/armv7e-m/fpu/fpv5-d16\libc.a(lib_a-sbrkr.o)
_sbrk_r                                           i:/mcu/gnu_tools_arm/bin/../lib/gcc/arm-none-eabi/5.4.1/../../../../arm-none-eabi/lib/armv7e-m/fpu/fpv5-d16\libc.a(lib_a-sbrkr.o)
                                                  i:/mcu/gnu_tools_arm/bin/../lib/gcc/arm-none-eabi/5.4.1/../../../../arm-none-eabi/lib/armv7e-m/fpu/fpv5-d16\libc.a(lib_a-freer.o)
                                                  i:/mcu/gnu_tools_arm/bin/../lib/gcc/arm-none-eabi/5.4.1/../../../../arm-none-eabi/lib/armv7e-m/fpu/fpv5-d16\libc.a(lib_a-mallocr.o)
_sbss                                             build/startup_stm32h750xx.o
_sdata                                            build/startup_stm32h750xx.o
_setlocale_r                                      i:/mcu/gnu_tools_arm/bin/../lib/gcc/arm-none-eabi/5.4.1/../../../../arm-none-eabi/lib/armv7e-m/fpu/fpv5-d16\libc.a(lib_a-locale.o)
_sidata                                           build/startup_stm32h750xx.o
_signal_r                                         i:/mcu/gnu_tools_arm/bin/../lib/gcc/arm-none-eabi/5.4.1/../../../../arm-none-eabi/lib/armv7e-m/fpu/fpv5-d16\libc.a(lib_a-signal.o)
_sprintf_r                                        i:/mcu/gnu_tools_arm/bin/../lib/gcc/arm-none-eabi/5.4.1/../../../../arm-none-eabi/lib/armv7e-m/fpu/fpv5-d16\libc.a(lib_a-sprintf.o)
_start                                            i:/mcu/gnu_tools_arm/bin/../lib/gcc/arm-none-eabi/5.4.1/../../../../arm-none-eabi/lib/armv7e-m/fpu/fpv5-d16/crt0.o
_svfiprintf_r                                     i:/mcu/gnu_tools_arm/bin/../lib/gcc/arm-none-eabi/5.4.1/../../../../arm-none-eabi/lib/armv7e-m/fpu/fpv5-d16\libc.a(lib_a-svfiprintf.o)
_svfprintf_r                                      i:/mcu/gnu_tools_arm/bin/../lib/gcc/arm-none-eabi/5.4.1/../../../../arm-none-eabi/lib/armv7e-m/fpu/fpv5-d16\libc.a(lib_a-svfprintf.o)
                                                  i:/mcu/gnu_tools_arm/bin/../lib/gcc/arm-none-eabi/5.4.1/../../../../arm-none-eabi/lib/armv7e-m/fpu/fpv5-d16\libc.a(lib_a-sprintf.o)
_wctomb_r                                         i:/mcu/gnu_tools_arm/bin/../lib/gcc/arm-none-eabi/5.4.1/../../../../arm-none-eabi/lib/armv7e-m/fpu/fpv5-d16\libc.a(lib_a-wctomb_r.o)
abort                                             i:/mcu/gnu_tools_arm/bin/../lib/gcc/arm-none-eabi/5.4.1/../../../../arm-none-eabi/lib/armv7e-m/fpu/fpv5-d16\libc.a(lib_a-abort.o)
                                                  i:/mcu/gnu_tools_arm/bin/../lib/gcc/arm-none-eabi/5.4.1/armv7e-m/fpu/fpv5-d16\libgcc.a(pr-support.o)
                                                  i:/mcu/gnu_tools_arm/bin/../lib/gcc/arm-none-eabi/5.4.1/armv7e-m/fpu/fpv5-d16\libgcc.a(unwind-arm.o)
atexit                                            i:/mcu/gnu_tools_arm/bin/../lib/gcc/arm-none-eabi/5.4.1/../../../../arm-none-eabi/lib/armv7e-m/fpu/fpv5-d16\libc.a(lib_a-atexit.o)
                                                  i:/mcu/gnu_tools_arm/bin/../lib/gcc/arm-none-eabi/5.4.1/../../../../arm-none-eabi/lib/armv7e-m/fpu/fpv5-d16\libc.a(lib_a-__call_atexit.o)
                                                  i:/mcu/gnu_tools_arm/bin/../lib/gcc/arm-none-eabi/5.4.1/../../../../arm-none-eabi/lib/armv7e-m/fpu/fpv5-d16/crt0.o
cleanup_glue                                      i:/mcu/gnu_tools_arm/bin/../lib/gcc/arm-none-eabi/5.4.1/../../../../arm-none-eabi/lib/armv7e-m/fpu/fpv5-d16\libc.a(lib_a-reent.o)
end                                               i:/mcu/gnu_tools_arm/bin/../lib/gcc/arm-none-eabi/5.4.1/../../../../arm-none-eabi/lib/armv7e-m/fpu/fpv5-d16\libnosys.a(sbrk.o)
errno                                             i:/mcu/gnu_tools_arm/bin/../lib/gcc/arm-none-eabi/5.4.1/../../../../arm-none-eabi/lib/armv7e-m/fpu/fpv5-d16\libc.a(lib_a-reent.o)
                                                  i:/mcu/gnu_tools_arm/bin/../lib/gcc/arm-none-eabi/5.4.1/../../../../arm-none-eabi/lib/armv7e-m/fpu/fpv5-d16\libnosys.a(kill.o)
                                                  i:/mcu/gnu_tools_arm/bin/../lib/gcc/arm-none-eabi/5.4.1/../../../../arm-none-eabi/lib/armv7e-m/fpu/fpv5-d16\libnosys.a(getpid.o)
                                                  i:/mcu/gnu_tools_arm/bin/../lib/gcc/arm-none-eabi/5.4.1/../../../../arm-none-eabi/lib/armv7e-m/fpu/fpv5-d16\libc.a(lib_a-signalr.o)
                                                  i:/mcu/gnu_tools_arm/bin/../lib/gcc/arm-none-eabi/5.4.1/../../../../arm-none-eabi/lib/armv7e-m/fpu/fpv5-d16\libc.a(lib_a-sbrkr.o)
exit                                              i:/mcu/gnu_tools_arm/bin/../lib/gcc/arm-none-eabi/5.4.1/../../../../arm-none-eabi/lib/armv7e-m/fpu/fpv5-d16\libc.a(lib_a-exit.o)
                                                  i:/mcu/gnu_tools_arm/bin/../lib/gcc/arm-none-eabi/5.4.1/../../../../arm-none-eabi/lib/armv7e-m/fpu/fpv5-d16/crt0.o
free                                              i:/mcu/gnu_tools_arm/bin/../lib/gcc/arm-none-eabi/5.4.1/../../../../arm-none-eabi/lib/armv7e-m/fpu/fpv5-d16\libc.a(lib_a-__call_atexit.o)
g_pfnVectors                                      build/startup_stm32h750xx.o
hardware_init_hook                                i:/mcu/gnu_tools_arm/bin/../lib/gcc/arm-none-eabi/5.4.1/../../../../arm-none-eabi/lib/armv7e-m/fpu/fpv5-d16/crt0.o
hdma_uart4_rx                                     build/usart.o
                                                  build/bsp_uart.o
                                                  build/stm32h7xx_it.o
hdma_uart4_tx                                     build/usart.o
                                                  build/bsp_uart.o
                                                  build/stm32h7xx_it.o
huart4                                            build/usart.o
                                                  build/bsp_uart.o
                                                  build/stm32h7xx_it.o
localeconv                                        i:/mcu/gnu_tools_arm/bin/../lib/gcc/arm-none-eabi/5.4.1/../../../../arm-none-eabi/lib/armv7e-m/fpu/fpv5-d16\libc.a(lib_a-localeconv.o)
main                                              build/app.o
                                                  build/startup_stm32h750xx.o
                                                  i:/mcu/gnu_tools_arm/bin/../lib/gcc/arm-none-eabi/5.4.1/../../../../arm-none-eabi/lib/armv7e-m/fpu/fpv5-d16/crt0.o
malloc                                            i:/mcu/gnu_tools_arm/bin/../lib/gcc/arm-none-eabi/5.4.1/../../../../arm-none-eabi/lib/armv7e-m/fpu/fpv5-d16\libc.a(lib_a-__atexit.o)
memchr                                            i:/mcu/gnu_tools_arm/bin/../lib/gcc/arm-none-eabi/5.4.1/../../../../arm-none-eabi/lib/armv7e-m/fpu/fpv5-d16\libc.a(lib_a-memchr.o)
                                                  i:/mcu/gnu_tools_arm/bin/../lib/gcc/arm-none-eabi/5.4.1/../../../../arm-none-eabi/lib/armv7e-m/fpu/fpv5-d16\libc.a(lib_a-svfiprintf.o)
                                                  i:/mcu/gnu_tools_arm/bin/../lib/gcc/arm-none-eabi/5.4.1/../../../../arm-none-eabi/lib/armv7e-m/fpu/fpv5-d16\libc.a(lib_a-svfprintf.o)
memcpy                                            i:/mcu/gnu_tools_arm/bin/../lib/gcc/arm-none-eabi/5.4.1/../../../../arm-none-eabi/lib/armv7e-m/fpu/fpv5-d16\libc.a(lib_a-memcpy.o)
                                                  i:/mcu/gnu_tools_arm/bin/../lib/gcc/arm-none-eabi/5.4.1/armv7e-m/fpu/fpv5-d16\libgcc.a(unwind-arm.o)
                                                  i:/mcu/gnu_tools_arm/bin/../lib/gcc/arm-none-eabi/5.4.1/../../../../arm-none-eabi/lib/armv7e-m/fpu/fpv5-d16\libc.a(lib_a-svfiprintf.o)
                                                  i:/mcu/gnu_tools_arm/bin/../lib/gcc/arm-none-eabi/5.4.1/../../../../arm-none-eabi/lib/armv7e-m/fpu/fpv5-d16\libc.a(lib_a-mprec.o)
                                                  i:/mcu/gnu_tools_arm/bin/../lib/gcc/arm-none-eabi/5.4.1/../../../../arm-none-eabi/lib/armv7e-m/fpu/fpv5-d16\libc.a(lib_a-dtoa.o)
memmove                                           i:/mcu/gnu_tools_arm/bin/../lib/gcc/arm-none-eabi/5.4.1/../../../../arm-none-eabi/lib/armv7e-m/fpu/fpv5-d16\libc.a(lib_a-memmove.o)
                                                  i:/mcu/gnu_tools_arm/bin/../lib/gcc/arm-none-eabi/5.4.1/../../../../arm-none-eabi/lib/armv7e-m/fpu/fpv5-d16\libc.a(lib_a-reallocr.o)
                                                  i:/mcu/gnu_tools_arm/bin/../lib/gcc/arm-none-eabi/5.4.1/../../../../arm-none-eabi/lib/armv7e-m/fpu/fpv5-d16\libc.a(lib_a-svfiprintf.o)
memset                                            i:/mcu/gnu_tools_arm/bin/../lib/gcc/arm-none-eabi/5.4.1/../../../../arm-none-eabi/lib/armv7e-m/fpu/fpv5-d16\libc.a(lib_a-memset.o)
                                                  i:/mcu/gnu_tools_arm/bin/../lib/gcc/arm-none-eabi/5.4.1/../../../../arm-none-eabi/lib/armv7e-m/fpu/fpv5-d16\libc.a(lib_a-callocr.o)
                                                  build/bsp_uart.o
                                                  build/app.o
                                                  build/bsp_clk.o
                                                  build/usart.o
                                                  build/main.o
                                                  i:/mcu/gnu_tools_arm/bin/../lib/gcc/arm-none-eabi/5.4.1/../../../../arm-none-eabi/lib/armv7e-m/fpu/fpv5-d16/crt0.o
my_task_stk                                       build/app_task.o
pFlash                                            build/stm32h7xx_hal_flash.o
                                                  build/stm32h7xx_hal_flash_ex.o
raise                                             i:/mcu/gnu_tools_arm/bin/../lib/gcc/arm-none-eabi/5.4.1/../../../../arm-none-eabi/lib/armv7e-m/fpu/fpv5-d16\libc.a(lib_a-signal.o)
                                                  i:/mcu/gnu_tools_arm/bin/../lib/gcc/arm-none-eabi/5.4.1/../../../../arm-none-eabi/lib/armv7e-m/fpu/fpv5-d16\libc.a(lib_a-abort.o)
recv_num                                          build/stm32h7xx_it.o
restore_core_regs                                 i:/mcu/gnu_tools_arm/bin/../lib/gcc/arm-none-eabi/5.4.1/armv7e-m/fpu/fpv5-d16\libgcc.a(libunwind.o)
                                                  i:/mcu/gnu_tools_arm/bin/../lib/gcc/arm-none-eabi/5.4.1/armv7e-m/fpu/fpv5-d16\libgcc.a(unwind-arm.o)
setlocale                                         i:/mcu/gnu_tools_arm/bin/../lib/gcc/arm-none-eabi/5.4.1/../../../../arm-none-eabi/lib/armv7e-m/fpu/fpv5-d16\libc.a(lib_a-locale.o)
signal                                            i:/mcu/gnu_tools_arm/bin/../lib/gcc/arm-none-eabi/5.4.1/../../../../arm-none-eabi/lib/armv7e-m/fpu/fpv5-d16\libc.a(lib_a-signal.o)
software_init_hook                                i:/mcu/gnu_tools_arm/bin/../lib/gcc/arm-none-eabi/5.4.1/../../../../arm-none-eabi/lib/armv7e-m/fpu/fpv5-d16/crt0.o
sprintf                                           i:/mcu/gnu_tools_arm/bin/../lib/gcc/arm-none-eabi/5.4.1/../../../../arm-none-eabi/lib/armv7e-m/fpu/fpv5-d16\libc.a(lib_a-sprintf.o)
                                                  build/bsp_uart.o
start_stk                                         build/app.o
start_tcb                                         build/app.o
strcmp                                            i:/mcu/gnu_tools_arm/bin/../lib/gcc/arm-none-eabi/5.4.1/../../../../arm-none-eabi/lib/armv7e-m/fpu/fpv5-d16\libc.a(lib_a-strcmp.o)
                                                  i:/mcu/gnu_tools_arm/bin/../lib/gcc/arm-none-eabi/5.4.1/../../../../arm-none-eabi/lib/armv7e-m/fpu/fpv5-d16\libc.a(lib_a-locale.o)
strlen                                            i:/mcu/gnu_tools_arm/bin/../lib/gcc/arm-none-eabi/5.4.1/../../../../arm-none-eabi/lib/armv7e-m/fpu/fpv5-d16\libc.a(lib_a-strlen.o)
                                                  i:/mcu/gnu_tools_arm/bin/../lib/gcc/arm-none-eabi/5.4.1/../../../../arm-none-eabi/lib/armv7e-m/fpu/fpv5-d16\libc.a(lib_a-svfiprintf.o)
                                                  i:/mcu/gnu_tools_arm/bin/../lib/gcc/arm-none-eabi/5.4.1/../../../../arm-none-eabi/lib/armv7e-m/fpu/fpv5-d16\libc.a(lib_a-svfprintf.o)
uwTick                                            build/stm32h7xx_hal.o
uwTickFreq                                        build/stm32h7xx_hal.o
uwTickPrio                                        build/stm32h7xx_hal.o
                                                  build/stm32h7xx_hal_rcc.o
